 Engine

 Timestamp is 3efc0556 (Fri Jun 27 16:50:30 2003)

 Preferred load address is 10000000

 Start         Length     Name                   Class
 0001:00000000 0003b6f0H .text                   CODE
 0001:0003b6f0 00000eb2H .text$x                 CODE
 0002:00000000 000002f0H .idata$5                DATA
 0002:000002f0 00003ff4H .rdata                  DATA
 0002:000042e8 00001310H .xdata$x                DATA
 0002:000055f8 000000f0H .idata$2                DATA
 0002:000056e8 00000014H .idata$3                DATA
 0002:000056fc 000002f0H .idata$4                DATA
 0002:000059ec 00000abcH .idata$6                DATA
 0002:000064b0 0000c7cdH .edata                  DATA
 0003:00000000 00000004H .CRT$XCA                DATA
 0003:00000004 00000014H .CRT$XCU                DATA
 0003:00000018 00000004H .CRT$XCZ                DATA
 0003:0000001c 00000004H .CRT$XIA                DATA
 0003:00000020 00000004H .CRT$XIZ                DATA
 0003:00000030 00008200H .data                   DATA
 0003:00008230 00013770H .bss                    DATA

  Address         Publics by Value              Rva+Base     Lib:Object

 0001:00000000       ?GetScreenMode@KDirectDraw@@QAEKXZ 10001000 f i KAutoMutex.obj
 0001:00000010       ?GetScreenWidth@KDirectDraw@@QAEKXZ 10001010 f i KAutoMutex.obj
 0001:00000020       ?GetScreenHeight@KDirectDraw@@QAEKXZ 10001020 f i KAutoMutex.obj
 0001:00000030       ?GetScreenPitch@KDirectDraw@@QAEKXZ 10001030 f i KAutoMutex.obj
 0001:00000040       ?GetRGBBitCount@KDirectDraw@@QAEKXZ 10001040 f i KAutoMutex.obj
 0001:00000050       ?GetRGBBitMask16@KDirectDraw@@QAEKXZ 10001050 f i KAutoMutex.obj
 0001:00000060       ?GetRGBBitMask32@KDirectDraw@@QAEKXZ 10001060 f i KAutoMutex.obj
 0001:00000070       ??4KDirectDraw@@QAEAAV0@ABV0@@Z 10001070 f i KAutoMutex.obj
 0001:00000090       ?GetDirectSound@KDirectSound@@QAEPAUIDirectSound@@XZ 10001090 f i KAutoMutex.obj
 0001:000000a0       ??4KDirectSound@@QAEAAV0@ABV0@@Z 100010a0 f i KAutoMutex.obj
 0001:000000c0       ??4KDirectInput@@QAEAAV0@ABV0@@Z 100010c0 f i KAutoMutex.obj
 0001:000000e0       ??4KFile@@QAEAAV0@ABV0@@Z  100010e0 f i KAutoMutex.obj
 0001:00000100       ?GetFilePath@KFileDialog@@QAEPADXZ 10001100 f i KAutoMutex.obj
 0001:00000110       ?GetFileName@KFileDialog@@QAEPADXZ 10001110 f i KAutoMutex.obj
 0001:00000120       ?GetFileTitleA@KFileDialog@@QAEPADXZ 10001120 f i KAutoMutex.obj
 0001:00000130       ??4KFileDialog@@QAEAAV0@ABV0@@Z 10001130 f i KAutoMutex.obj
 0001:00000150       ??4KTimer@@QAEAAV0@ABV0@@Z 10001150 f i KAutoMutex.obj
 0001:00000170       ?GetMemPtr@KMemClass@@QAEPAXXZ 10001170 f i KAutoMutex.obj
 0001:00000180       ?GetMemLen@KMemClass@@QAEKXZ 10001180 f i KAutoMutex.obj
 0001:00000190       ??4KMemClass@@QAEAAV0@ABV0@@Z 10001190 f i KAutoMutex.obj
 0001:000001b0       ??0KCodec@@QAE@XZ          100011b0 f i KAutoMutex.obj
 0001:000001c0       ??0KCodec@@QAE@ABV0@@Z     100011c0 f i KAutoMutex.obj
 0001:000001d0       ??4KCodec@@QAEAAV0@ABV0@@Z 100011d0 f i KAutoMutex.obj
 0001:000001e0       ??4KPakData@@QAEAAV0@ABV0@@Z 100011e0 f i KAutoMutex.obj
 0001:00000200       ??4KMutex@@QAEAAV0@ABV0@@Z 10001200 f i KAutoMutex.obj
 0001:00000220       ?getPackFile@KPakList@@QAEPAVZSPRPackFile@@H@Z 10001220 f i KAutoMutex.obj
 0001:00000260       ?SetActivePak@KPakList@@QAEXH@Z 10001260 f i KAutoMutex.obj
 0001:00000270       ?GetActivePak@KPakList@@QAEJXZ 10001270 f i KAutoMutex.obj
 0001:00000280       ?GetMutexPtr@KPakList@@QAEPAVKMutex@@XZ 10001280 f i KAutoMutex.obj
 0001:00000290       ?Lock@KPakList@@QAEXXZ     10001290 f i KAutoMutex.obj
 0001:000002a0       ?Unlock@KPakList@@QAEXXZ   100012a0 f i KAutoMutex.obj
 0001:000002b0       ??4KPakList@@QAEAAV0@ABV0@@Z 100012b0 f i KAutoMutex.obj
 0001:000002d0       ??4KPakFile@@QAEAAV0@ABV0@@Z 100012d0 f i KAutoMutex.obj
 0001:000002f0       ??4KMemStack@@QAEAAV0@ABV0@@Z 100012f0 f i KAutoMutex.obj
 0001:00000310       ??4KIniFile@@QAEAAV0@ABV0@@Z 10001310 f i KAutoMutex.obj
 0001:00000330       ?Changed@KCanvas@@QAEXH@Z  10001330 f i KAutoMutex.obj
 0001:00000340       ?SetClipRect@KCanvas@@QAEXPAUtagRECT@@@Z 10001340 f i KAutoMutex.obj
 0001:00000360       ?GetClipRect@KCanvas@@QAEXPAUtagRECT@@@Z 10001360 f i KAutoMutex.obj
 0001:00000380       ??4KCanvas@@QAEAAV0@ABV0@@Z 10001380 f i KAutoMutex.obj
 0001:000003a0       ?GetWidth@KSprite@@QAEHXZ  100013a0 f i KAutoMutex.obj
 0001:000003b0       ?GetHeight@KSprite@@QAEHXZ 100013b0 f i KAutoMutex.obj
 0001:000003c0       ?GetCenterX@KSprite@@QAEHXZ 100013c0 f i KAutoMutex.obj
 0001:000003d0       ?GetCenterY@KSprite@@QAEHXZ 100013d0 f i KAutoMutex.obj
 0001:000003e0       ?GetFrames@KSprite@@QAEHXZ 100013e0 f i KAutoMutex.obj
 0001:000003f0       ?GetDirections@KSprite@@QAEHXZ 100013f0 f i KAutoMutex.obj
 0001:00000400       ?GetInterval@KSprite@@QAEHXZ 10001400 f i KAutoMutex.obj
 0001:00000410       ?GetPalette@KSprite@@QAEPAXXZ 10001410 f i KAutoMutex.obj
 0001:00000420       ?Get24Palette@KSprite@@QAEPAXXZ 10001420 f i KAutoMutex.obj
 0001:00000430       ??4KSprite@@QAEAAV0@ABV0@@Z 10001430 f i KAutoMutex.obj
 0001:00000450       ??1KSprite@@QAE@XZ         10001450 f i KAutoMutex.obj
 0001:000004a0       ?GetBitmap@KBitmap@@QAEPAXXZ 100014a0 f i KAutoMutex.obj
 0001:000004b0       ?GetPal32@KBitmap@@QAEPAUKPAL32@@XZ 100014b0 f i KAutoMutex.obj
 0001:000004c0       ?GetPal16@KBitmap@@QAEPAGXZ 100014c0 f i KAutoMutex.obj
 0001:000004d0       ?GetWidth@KBitmap@@QAEHXZ  100014d0 f i KAutoMutex.obj
 0001:000004e0       ?GetHeight@KBitmap@@QAEHXZ 100014e0 f i KAutoMutex.obj
 0001:000004f0       ?GetColors@KBitmap@@QAEHXZ 100014f0 f i KAutoMutex.obj
 0001:00000500       ??4KBitmap@@QAEAAV0@ABV0@@Z 10001500 f i KAutoMutex.obj
 0001:00000520       ??1KBitmap@@QAE@XZ         10001520 f i KAutoMutex.obj
 0001:00000530       ?GetWidth@KFont@@QAEHXZ    10001530 f i KAutoMutex.obj
 0001:00000540       ?GetHeight@KFont@@QAEHXZ   10001540 f i KAutoMutex.obj
 0001:00000550       ?SetTextStyle@KFont@@QAEXH@Z 10001550 f i KAutoMutex.obj
 0001:00000560       ??4KFont@@QAEAAV0@ABV0@@Z  10001560 f i KAutoMutex.obj
 0001:00000580       ?HandleInput@KWin32App@@MAEHIIJ@Z 10001580 f i KAutoMutex.obj
 0001:00000590       ??0KWin32App@@QAE@ABV0@@Z  10001590 f i KAutoMutex.obj
 0001:000005f0       ??4KWin32App@@QAEAAV0@ABV0@@Z 100015f0 f i KAutoMutex.obj
 0001:00000660       ??4KAutoMutex@@QAEAAV0@ABV0@@Z 10001660 f i KAutoMutex.obj
 0001:00000670       ??0KAutoMutex@@QAE@PAVKMutex@@@Z 10001670 f   KAutoMutex.obj
 0001:00000690       ??1KAutoMutex@@QAE@XZ      10001690 f   KAutoMutex.obj
 0001:000006b0       ??4KAviFile@@QAEAAV0@ABV0@@Z 100016b0 f i KAviFile.obj
 0001:000006d0       ??0KAviFile@@QAE@XZ        100016d0 f   KAviFile.obj
 0001:00000700       ??1KAviFile@@QAE@XZ        10001700 f   KAviFile.obj
 0001:00000750       ?Open@KAviFile@@QAEHPAD@Z  10001750 f   KAviFile.obj
 0001:000007d0       ?FillHeader@KAviFile@@QAEHXZ 100017d0 f   KAviFile.obj
 0001:00000cb0       ?GetAudioIndex@KAviFile@@QAEHXZ 10001cb0 f   KAviFile.obj
 0001:00000de0       ?GetVideoIndex@KAviFile@@QAEHXZ 10001de0 f   KAviFile.obj
 0001:00000f30       ?VideoStreams@KAviFile@@QAEHXZ 10001f30 f   KAviFile.obj
 0001:00000f40       ?AudioStreams@KAviFile@@QAEHXZ 10001f40 f   KAviFile.obj
 0001:00000f50       ?GetBitmapInfoHeader@KAviFile@@QAEXPAUtagBITMAPINFOHEADER@@@Z 10001f50 f   KAviFile.obj
 0001:00000f70       ?GetWaveFormat@KAviFile@@QAEXPAUtWAVEFORMATEX@@@Z 10001f70 f   KAviFile.obj
 0001:00000fa0       ?GetCompressMethod@KAviFile@@QAEXPAD@Z 10001fa0 f   KAviFile.obj
 0001:00000fc0       ?NextFrame@KAviFile@@QAEHPAE@Z 10001fc0 f   KAviFile.obj
 0001:00001020       ?ReadAudio@KAviFile@@QAEHPAEH@Z 10002020 f   KAviFile.obj
 0001:000010c0       ?FrameRate@KAviFile@@QAEHXZ 100020c0 f   KAviFile.obj
 0001:000010e0       ?CurrentFrame@KAviFile@@QAEHXZ 100020e0 f   KAviFile.obj
 0001:000010f0       ?TotalFrames@KAviFile@@QAEHXZ 100020f0 f   KAviFile.obj
 0001:00001100       ?VideoSeek@KAviFile@@QAEHH@Z 10002100 f   KAviFile.obj
 0001:00001160       ?AudioSeek@KAviFile@@QAEHH@Z 10002160 f   KAviFile.obj
 0001:00001230       ?IsKeyframe@KAviFile@@QAEHH@Z 10002230 f   KAviFile.obj
 0001:00001260       ?NextKeyFrame@KAviFile@@QAEHXZ 10002260 f   KAviFile.obj
 0001:000012a0       ?PreviousKeyFrame@KAviFile@@QAEHXZ 100022a0 f   KAviFile.obj
 0001:000012e0       ?Rewind@KAviFile@@QAEHXZ   100022e0 f   KAviFile.obj
 0001:00001300       ?Close@KAviFile@@QAEXXZ    10002300 f   KAviFile.obj
 0001:00001340       ??0KBitmap@@QAE@XZ         10002340 f   KBitmap.obj
 0001:00001360       ?Init@KBitmap@@QAEHHHH@Z   10002360 f   KBitmap.obj
 0001:000013a0       ?Draw@KBitmap@@QAEXHH@Z    100023a0 f   KBitmap.obj
 0001:000013e0       ?Clear@KBitmap@@QAEXE@Z    100023e0 f   KBitmap.obj
 0001:000013f0       ?MakePalette@KBitmap@@QAEXXZ 100023f0 f   KBitmap.obj
 0001:00001410       ?PutPixel@KBitmap@@QAEXHHE@Z 10002410 f   KBitmap.obj
 0001:00001430       ?GetPixel@KBitmap@@QAEEHH@Z 10002430 f   KBitmap.obj
 0001:00001450       ?Load@KBitmap@@QAEHPAD@Z   10002450 f   KBitmap.obj
 0001:00001570       ?Save@KBitmap@@QAEHPAD@Z   10002570 f   KBitmap.obj
 0001:00001660       ?GetBitmap@KBitmap16@@QAEPAXXZ 10002660 f i KBitmap16.obj
 0001:00001670       ?GetWidth@KBitmap16@@QAEHXZ 10002670 f i KBitmap16.obj
 0001:00001680       ?GetHeight@KBitmap16@@QAEHXZ 10002680 f i KBitmap16.obj
 0001:00001690       ??4KBitmap16@@QAEAAV0@ABV0@@Z 10002690 f i KBitmap16.obj
 0001:000016c0       ??1KBitmap16@@QAE@XZ       100026c0 f i KBitmap16.obj
 0001:000016d0       ??0KBitmap16@@QAE@XZ       100026d0 f   KBitmap16.obj
 0001:000016f0       ?Init@KBitmap16@@QAEHHH@Z  100026f0 f   KBitmap16.obj
 0001:00001720       ?Free@KBitmap16@@QAEXXZ    10002720 f   KBitmap16.obj
 0001:00001730       ?Clear@KBitmap16@@QAEXXZ   10002730 f   KBitmap16.obj
 0001:00001740       ?Draw@KBitmap16@@QAEXHH@Z  10002740 f   KBitmap16.obj
 0001:00001750       ?DrawLum@KBitmap16@@QAEXHHH@Z 10002750 f   KBitmap16.obj
 0001:00001760       ?PutPixel@KBitmap16@@QAEXHHG@Z 10002760 f   KBitmap16.obj
 0001:000017a0       ?GetPixel@KBitmap16@@QAEGHH@Z 100027a0 f   KBitmap16.obj
 0001:000017e0       ?GetPointer@KBitmap16@@QAEPAGHH@Z 100027e0 f   KBitmap16.obj
 0001:00001800       ?Load@KBitmap16@@QAEHPAD@Z 10002800 f   KBitmap16.obj
 0001:00001940       ?Save@KBitmap16@@QAEHPAD@Z 10002940 f   KBitmap16.obj
 0001:00001a10       _g_CreateAlphaFromRGB      10002a10 f   KBitmapConvert.obj
 0001:00001a70       ?GetSprite@KBmp2Spr@@QAEPAXXZ 10002a70 f i KBmp2Spr.obj
 0001:00001a80       ?GetLength@KBmp2Spr@@QAEJXZ 10002a80 f i KBmp2Spr.obj
 0001:00001a90       ??4KBmp2Spr@@QAEAAV0@ABV0@@Z 10002a90 f i KBmp2Spr.obj
 0001:00001ab0       ??1KBmp2Spr@@QAE@XZ        10002ab0 f i KBmp2Spr.obj
 0001:00001ac0       ??0KBmp2Spr@@QAE@XZ        10002ac0 f   KBmp2Spr.obj
 0001:00001ae0       ?Convert@KBmp2Spr@@QAEHPAVKBitmap@@H@Z 10002ae0 f   KBmp2Spr.obj
 0001:00001b80       ?ConvertRect@KBmp2Spr@@IAEJPAUtagRECT@@PAE@Z 10002b80 f   KBmp2Spr.obj
 0001:00001c00       ?ConvertLine@KBmp2Spr@@IAEJHHHPAE@Z 10002c00 f   KBmp2Spr.obj
 0001:00001c90       ?GetTransCount@KBmp2Spr@@IAEJHHH@Z 10002c90 f   KBmp2Spr.obj
 0001:00001ce0       ?GetPixelCount@KBmp2Spr@@IAEJHHH@Z 10002ce0 f   KBmp2Spr.obj
 0001:00001d30       ?GetMiniRect@KBmp2Spr@@IAEXPAUtagRECT@@@Z 10002d30 f   KBmp2Spr.obj
 0001:00001e50       ??4KBmpFile@@QAEAAV0@ABV0@@Z 10002e50 f i KBmpFile.obj
 0001:00001e80       ?Load@KBmpFile@@QAEHPADPAVKBitmap@@@Z 10002e80 f   KBmpFile.obj
 0001:00002040       ?Save@KBmpFile@@QAEHPADPAVKBitmap@@@Z 10003040 f   KBmpFile.obj
 0001:00002210       ?Decode@KBmpFile@@AAEXPAX0@Z 10003210 f   KBmpFile.obj
 0001:00002260       ?Encode@KBmpFile@@AAEXPAX0@Z 10003260 f   KBmpFile.obj
 0001:000022b0       ??4KBmpFile24@@QAEAAV0@ABV0@@Z 100032b0 f i KBmpFile24.obj
 0001:000022d0       ?Load@KBmpFile24@@QAEHPADPAVKBitmap16@@@Z 100032d0 f   KBmpFile24.obj
 0001:00002450       ?Save@KBmpFile24@@QAEHPADPAVKBitmap16@@@Z 10003450 f   KBmpFile24.obj
 0001:00002600       ?Decode@KBmpFile24@@AAEHPAX0@Z 10003600 f   KBmpFile24.obj
 0001:000026b0       ?Encode@KBmpFile24@@AAEHPAX0@Z 100036b0 f   KBmpFile24.obj
 0001:00002770       ??0KMemManager@@QAE@ABV0@@Z 10003770 f i KCache.obj
 0001:000027c0       ??_EKNode@@UAEPAXI@Z       100037c0 f i KCache.obj
 0001:000027c0       ??_GKNode@@UAEPAXI@Z       100037c0 f i KCache.obj
 0001:000027e0       ??4KMemManager@@QAEAAV0@ABV0@@Z 100037e0 f i KCache.obj
 0001:00002830       ?GetName@KStrNode@@UAEPADXZ 10003830 f i KCache.obj
 0001:00002840       ?SetName@KStrNode@@UAEXPAD@Z 10003840 f i KCache.obj
 0001:00002860       ??0KStrNode@@QAE@ABV0@@Z   10003860 f i KCache.obj
 0001:000028a0       ??4KStrNode@@QAEAAV0@ABV0@@Z 100038a0 f i KCache.obj
 0001:000028e0       ??1KStrNode@@UAE@XZ        100038e0 f i KCache.obj
 0001:000028f0       ??_GKStrNode@@UAEPAXI@Z    100038f0 f i KCache.obj
 0001:00002910       ??_EKStrNode@@UAEPAXI@Z    10003910 f i KCache.obj
 0001:00002970       ??0KStrList@@QAE@XZ        10003970 f i KCache.obj
 0001:000029a0       ??0KStrList@@QAE@ABV0@@Z   100039a0 f i KCache.obj
 0001:000029d0       ??4KStrList@@QAEAAV0@ABV0@@Z 100039d0 f i KCache.obj
 0001:00002a00       ??1KStrList@@QAE@XZ        10003a00 f i KCache.obj
 0001:00002a10       ?LoadNode@KCache@@UAEHPAVKCacheNode@@@Z 10003a10 f i KCache.obj
 0001:00002a20       ?FreeNode@KCache@@UAEXPAVKCacheNode@@@Z 10003a20 f i KCache.obj
 0001:00002a30       ??0KCache@@QAE@ABV0@@Z     10003a30 f i KCache.obj
 0001:00002a70       ??4KCache@@QAEAAV0@ABV0@@Z 10003a70 f i KCache.obj
 0001:00002aa0       ??_GKCache@@UAEPAXI@Z      10003aa0 f i KCache.obj
 0001:00002ac0       ??_EKCache@@UAEPAXI@Z      10003ac0 f i KCache.obj
 0001:00002b20       ??0KCache@@QAE@XZ          10003b20 f   KCache.obj
 0001:00002b70       ??1KCache@@UAE@XZ          10003b70 f   KCache.obj
 0001:00002bf0       ?Init@KCache@@UAEXH@Z      10003bf0 f   KCache.obj
 0001:00002c00       ?NewNode@KCache@@UAEPAVKCacheNode@@PAD@Z 10003c00 f   KCache.obj
 0001:00002de0       ??_GKCacheNode@@UAEPAXI@Z  10003de0 f i KCache.obj
 0001:00002de0       ??_EKCacheNode@@UAEPAXI@Z  10003de0 f i KCache.obj
 0001:00002e00       ??1KCacheNode@@UAE@XZ      10003e00 f i KCache.obj
 0001:00002e10       ?GetNode@KCache@@UAEPAVKCacheNode@@PADPAV2@@Z 10003e10 f   KCache.obj
 0001:00002ea0       ?Prepare@KCache@@QAEXXZ    10003ea0 f   KCache.obj
 0001:00002f10       ?ClearNode@KCache@@QAEXPAD@Z 10003f10 f   KCache.obj
 0001:00002f70       ??0KCanvas@@QAE@XZ         10003f70 f   KCanvas.obj
 0001:00002fa0       ??1KCanvas@@QAE@XZ         10003fa0 f   KCanvas.obj
 0001:00003000       ?Init@KCanvas@@QAEXHH@Z    10004000 f   KCanvas.obj
 0001:000030b0       ??_EKDrawNode@@UAEPAXI@Z   100040b0 f i KCanvas.obj
 0001:000030b0       ??_GKDrawNode@@UAEPAXI@Z   100040b0 f i KCanvas.obj
 0001:000030d0       ??1KDrawNode@@UAE@XZ       100040d0 f i KCanvas.obj
 0001:000030e0       ?RectClip@KCanvas@@QAEHPAUtagRECT@@@Z 100040e0 f   KCanvas.obj
 0001:00003140       ?MakeClip@KCanvas@@QAEHJJJJPAUKClipper@@@Z 10004140 f   KCanvas.obj
 0001:00003210       ?FillCanvas@KCanvas@@QAEXG@Z 10004210 f   KCanvas.obj
 0001:00003270       ?UpdateCanvas@KCanvas@@QAEXXZ 10004270 f   KCanvas.obj
 0001:00003280       ?UpdateScreen@KCanvas@@QAEXXZ 10004280 f   KCanvas.obj
 0001:000032b0       ?UpdateBackBuffer@KCanvas@@AAEXPAUtagRECT@@@Z 100042b0 f   KCanvas.obj
 0001:000033e0       ?UpdateFrontBuffer@KCanvas@@AAEXPAUtagRECT@@@Z 100043e0 f   KCanvas.obj
 0001:00003500       ?DrawPixel@KCanvas@@QAEXHHH@Z 10004500 f   KCanvas.obj
 0001:00003540       ?DrawPixelAlpha@KCanvas@@QAEXHHHH@Z 10004540 f   KCanvas.obj
 0001:00003590       ?DrawLine@KCanvas@@QAEXHHHHH@Z 10004590 f   KCanvas.obj
 0001:000035e0       ?DrawLineAlpha@KCanvas@@QAEXHHHHHH@Z 100045e0 f   KCanvas.obj
 0001:00003640       ?DrawSprite@KCanvas@@QAEXHHHHPAX0@Z 10004640 f   KCanvas.obj
 0001:000036a0       ?DrawSpriteMixColor@KCanvas@@QAEXHHHHPAX0HH@Z 100046a0 f   KCanvas.obj
 0001:00003710       ?DrawSpriteWithColor@KCanvas@@QAEXHHHHPAX0HH@Z 10004710 f   KCanvas.obj
 0001:00003780       ?DrawSpriteAlpha@KCanvas@@QAEXHHHHPAX0H@Z 10004780 f   KCanvas.obj
 0001:00003800       ?DrawSpriteBorder@KCanvas@@QAEXHHHHHPAX@Z 10004800 f   KCanvas.obj
 0001:00003850       ?DrawSprite3LevelAlpha@KCanvas@@QAEXHHHHPAX0@Z 10004850 f   KCanvas.obj
 0001:000038a0       ?DrawFont@KCanvas@@QAEXHHHHHHPAX@Z 100048a0 f   KCanvas.obj
 0001:00003910       ?DrawFontWithBorder@KCanvas@@QAEXHHHHHHPAXH@Z 10004910 f   KCanvas.obj
 0001:00003980       ?DrawFontSolid@KCanvas@@QAEXHHHHHHPAX@Z 10004980 f   KCanvas.obj
 0001:000039f0       ?DrawBitmap@KCanvas@@QAEXHHHHPAX0@Z 100049f0 f   KCanvas.obj
 0001:00003a50       ?DrawFade@KCanvas@@QAEXHHHHH@Z 10004a50 f   KCanvas.obj
 0001:00003aa0       ?DrawBitmap16@KCanvas@@QAEXHHHHPAX@Z 10004aa0 f   KCanvas.obj
 0001:00003af0       ?DrawBitmap16mmx@KCanvas@@QAEXHHHHPAX@Z 10004af0 f   KCanvas.obj
 0001:00003b40       ?DrawBitmap16win@KCanvas@@QAEXHHHHPAX@Z 10004b40 f   KCanvas.obj
 0001:00003b90       ?Clear@KCanvas@@QAEXHHHHH@Z 10004b90 f   KCanvas.obj
 0001:00003be0       ?DotClear@KCanvas@@QAEXHHHHH@Z 10004be0 f   KCanvas.obj
 0001:00003c30       ?ClearAlpha@KCanvas@@QAEXHHHHHH@Z 10004c30 f   KCanvas.obj
 0001:00003c90       ??0KCodecLha@@QAE@XZ       10004c90 f i KCodec.obj
 0001:00003ca0       ??0KCodecLha@@QAE@ABV0@@Z  10004ca0 f i KCodec.obj
 0001:00003cb0       ??4KCodecLha@@QAEAAV0@ABV0@@Z 10004cb0 f i KCodec.obj
 0001:00003cc0       ??0KCodecLzo@@QAE@XZ       10004cc0 f i KCodec.obj
 0001:00003ce0       ??0KCodecLzo@@QAE@ABV0@@Z  10004ce0 f i KCodec.obj
 0001:00003d10       ??4KCodecLzo@@QAEAAV0@ABV0@@Z 10004d10 f i KCodec.obj
 0001:00003d30       ??1KCodecLzo@@QAE@XZ       10004d30 f i KCodec.obj
 0001:00003d40       ?GetPackLen@KCodec@@UAEKK@Z 10004d40 f   KCodec.obj
 0001:00003d60       ?Encode@KCodec@@UAEHPAUTCodeInfo@@@Z 10004d60 f   KCodec.obj
 0001:00003d90       ?Decode@KCodec@@UAEHPAUTCodeInfo@@@Z 10004d90 f   KCodec.obj
 0001:00003dc0       ?g_InitCodec@@YAXPAPAVKCodec@@H@Z 10004dc0 f   KCodec.obj
 0001:00003ec0       ?g_FreeCodec@@YAXPAPAVKCodec@@H@Z 10004ec0 f   KCodec.obj
 0001:00003f00       ?Encode@KCodecLha@@UAEHPAUTCodeInfo@@@Z 10004f00 f   KCodecLha.obj
 0001:00003f30       ?Decode@KCodecLha@@UAEHPAUTCodeInfo@@@Z 10004f30 f   KCodecLha.obj
 0001:00003f60       ?Compress@KCodecLzo@@AAEKPAEK0PAK@Z 10004f60 f   KCodecLzo.obj
 0001:000042d0       ?Encode@KCodecLzo@@UAEHPAUTCodeInfo@@@Z 100052d0 f   KCodecLzo.obj
 0001:000043e0       ?Decode@KCodecLzo@@UAEHPAUTCodeInfo@@@Z 100053e0 f   KCodecLzo.obj
 0001:00004620       ?g_Red@@YAEG@Z             10005620 f   KColors.obj
 0001:00004640       ?g_Green@@YAEG@Z           10005640 f   KColors.obj
 0001:00004680       ?g_Blue@@YAEG@Z            10005680 f   KColors.obj
 0001:000046c0       ?g_RGB555@@YAGHHH@Z        100056c0 f   KColors.obj
 0001:00004700       ?g_RGB565@@YAGHHH@Z        10005700 f   KColors.obj
 0001:00004740       ?g_555To565@@YAXHHPAX@Z    10005740 f   KColors.obj
 0001:00004780       ?g_565To555@@YAXHHPAX@Z    10005780 f   KColors.obj
 0001:000047c0       ??0KDirectDraw@@QAE@XZ     100057c0 f   KDDraw.obj
 0001:00004800       ??1KDirectDraw@@QAE@XZ     10005800 f   KDDraw.obj
 0001:00004810       ?Mode@KDirectDraw@@QAEXHHH@Z 10005810 f   KDDraw.obj
 0001:00004830       ?Init@KDirectDraw@@QAEHXZ  10005830 f   KDDraw.obj
 0001:00004900       ?Exit@KDirectDraw@@QAEXXZ  10005900 f   KDDraw.obj
 0001:00004960       ?CreateDirectDraw@KDirectDraw@@AAEHXZ 10005960 f   KDDraw.obj
 0001:000049c0       ?SetDisplayMode@KDirectDraw@@AAEHXZ 100059c0 f   KDDraw.obj
 0001:00004a40       ?GetDisplayMode@KDirectDraw@@AAEHXZ 10005a40 f   KDDraw.obj
 0001:00004af0       ?CreateSurface@KDirectDraw@@AAEHXZ 10005af0 f   KDDraw.obj
 0001:00004c10       ?RestoreSurface@KDirectDraw@@QAEHXZ 10005c10 f   KDDraw.obj
 0001:00004c50       ?GetSurfaceDesc@KDirectDraw@@AAEHXZ 10005c50 f   KDDraw.obj
 0001:00004d80       ?CreateClipper@KDirectDraw@@AAEHXZ 10005d80 f   KDDraw.obj
 0001:00004de0       ?SetClipperHWnd@KDirectDraw@@QAEXPAUHWND__@@@Z 10005de0 f   KDDraw.obj
 0001:00004e10       ?LockPrimaryBuffer@KDirectDraw@@QAEPAXXZ 10005e10 f   KDDraw.obj
 0001:00004e60       ?UnLockPrimaryBuffer@KDirectDraw@@QAEXXZ 10005e60 f   KDDraw.obj
 0001:00004e80       ?LockBackBuffer@KDirectDraw@@QAEPAXXZ 10005e80 f   KDDraw.obj
 0001:00004ed0       ?UnLockBackBuffer@KDirectDraw@@QAEXXZ 10005ed0 f   KDDraw.obj
 0001:00004ef0       ?WaitForVerticalBlankBegin@KDirectDraw@@QAEXXZ 10005ef0 f   KDDraw.obj
 0001:00004f10       ?WaitForVerticalBlankEnd@KDirectDraw@@QAEXXZ 10005f10 f   KDDraw.obj
 0001:00004f30       ?FillBackBuffer@KDirectDraw@@QAEXK@Z 10005f30 f   KDDraw.obj
 0001:00004f70       ?UpdateScreen@KDirectDraw@@QAEXPAUtagRECT@@@Z 10005f70 f   KDDraw.obj
 0001:00004fa0       ?UpdateScreenZoom@KDirectDraw@@QAEXPAUtagRECT@@@Z 10005fa0 f   KDDraw.obj
 0001:00004fd0       ?SetWindowStyle@KDirectDraw@@AAEXXZ 10005fd0 f   KDDraw.obj
 0001:00005080       ?g_FindDebugWindow@@YAPAUHWND__@@PAD0@Z 10006080 f   KDebug.obj
 0001:000050a0       ?g_DebugLog@@YAXPADZZ      100060a0 f   KDebug.obj
 0001:00005100       ?g_MessageBox@@YAXPADZZ    10006100 f   KDebug.obj
 0001:00005150       ?g_AssertFailed@@YAXPADH@Z 10006150 f   KDebug.obj
 0001:000051a0       ?g_DDError@@YAXH@Z         100061a0 f   KDError.obj
 0001:000051e0       ?g_DSError@@YAXH@Z         100061e0 f   KDError.obj
 0001:00005220       ?g_DIError@@YAXH@Z         10006220 f   KDError.obj
 0001:00005260       ??0KDirectInput@@QAE@XZ    10006260 f   KDInput.obj
 0001:00005280       ??1KDirectInput@@QAE@XZ    10006280 f   KDInput.obj
 0001:00005290       ?Init@KDirectInput@@QAEHXZ 10006290 f   KDInput.obj
 0001:00005310       ?Exit@KDirectInput@@QAEXXZ 10006310 f   KDInput.obj
 0001:00005370       ?CreateDirectInput@KDirectInput@@AAEHXZ 10006370 f   KDInput.obj
 0001:000053b0       ?CreateMouseDevice@KDirectInput@@AAEHXZ 100063b0 f   KDInput.obj
 0001:00005440       ?CreateKeyboardDevice@KDirectInput@@AAEHXZ 10006440 f   KDInput.obj
 0001:000054d0       ?SetMouseBehavior@KDirectInput@@QAEHH@Z 100064d0 f   KDInput.obj
 0001:00005510       ?GetMouseState@KDirectInput@@QAEHPAH0PAE1@Z 10006510 f   KDInput.obj
 0001:00005570       ?GetKeyboardState@KDirectInput@@QAEHPAE@Z 10006570 f   KDInput.obj
 0001:000055b0       ?g_DrawPixel@@YAXPAX0@Z    100065b0 f   KDrawBase.obj
 0001:00005630       ?g_DrawPixelAlpha@@YAXPAX0@Z 10006630 f   KDrawBase.obj
 0001:000056f0       ?g_DrawLine@@YAXPAX0@Z     100066f0 f   KDrawBase.obj
 0001:00005830       ?g_DrawLineAlpha@@YAXPAX0@Z 10006830 f   KDrawBase.obj
 0001:00005970       ?g_Clear@@YAXPAX0@Z        10006970 f   KDrawBase.obj
 0001:00005a10       ?g_DotClear@@YAXPAX0@Z     10006a10 f   KDrawBase.obj
 0001:00005ab0       ?g_ClearAlpha@@YAXPAX0@Z   10006ab0 f   KDrawBase.obj
 0001:00005b80       ?g_DrawBitmap@@YAXPAX0@Z   10006b80 f   KDrawBitmap.obj
 0001:00005c30       ?g_DrawBitmap16@@YAXPAX0@Z 10006c30 f   KDrawBitmap16.obj
 0001:00005d00       ?g_DrawBitmap16_OLD@@YAXPAX0@Z 10006d00 f   KDrawBitmap16.obj
 0001:00005db0       ?g_DrawBitmap16mmx@@YAXPAX0@Z 10006db0 f   KDrawBitmap16.obj
 0001:00005e70       ?g_DrawBitmap16win@@YAXPAX0@Z 10006e70 f   KDrawBitmap16.obj
 0001:00005f40       ?g_DrawFade@@YAXPAX0@Z     10006f40 f   KDrawFade.obj
 0001:00006030       ?g_DrawFont@@YAXPAX0@Z     10007030 f   KDrawFont.obj
 0001:00006190       ?g_DrawFontWithBorder@@YAXPAX0@Z 10007190 f   KDrawFont.obj
 0001:00006290       ?g_DrawFontSolid@@YAXPAX0@Z 10007290 f   KDrawFont.obj
 0001:000063c0       ?g_DrawSprite@@YAXPAX0@Z   100073c0 f   KDrawSprite.obj
 0001:00006680       ?g_DrawSprite_OLD@@YAXPAX0@Z 10007680 f   KDrawSprite.obj
 0001:00006910       ?g_DrawSpriteMixColor@@YAXPAX0@Z 10007910 f   KDrawSprite.obj
 0001:00006d10       ?g_DrawSpriteWithColor@@YAXPAX0@Z 10007d10 f   KDrawSprite.obj
 0001:00007140       ?g_DrawSpriteBorder@@YAXPAX0@Z 10008140 f   KDrawSprite.obj
 0001:00007370       ?g_DrawSpriteAlpha@@YAXPAX0@Z 10008370 f   KDrawSpriteAlpha.obj
 0001:000078f0       ?g_DrawSpriteAlpha@@YAXPAX0H@Z 100088f0 f   KDrawSpriteAlpha.obj
 0001:000081d0       ?g_DrawSprite3LevelAlpha@@YAXPAX0@Z 100091d0 f   KDrawSpriteAlpha.obj
 0001:000084b0       ??0KDirectSound@@QAE@XZ    100094b0 f   KDSound.obj
 0001:000084d0       ??1KDirectSound@@QAE@XZ    100094d0 f   KDSound.obj
 0001:000084e0       ?Init@KDirectSound@@QAEHXZ 100094e0 f   KDSound.obj
 0001:00008520       ?Exit@KDirectSound@@QAEXXZ 10009520 f   KDSound.obj
 0001:00008560       ?CreateDirectSound@KDirectSound@@AAEHXZ 10009560 f   KDSound.obj
 0001:000085b0       ?CreatePrimarySoundBuffer@KDirectSound@@AAEHXZ 100095b0 f   KDSound.obj
 0001:00008670       ??0KScript@@QAE@ABV0@@Z    10009670 f i KEicScript.obj
 0001:00008680       ??4KScript@@QAEAAV0@ABV0@@Z 10009680 f i KEicScript.obj
 0001:00008690       ??_GKScript@@UAEPAXI@Z     10009690 f i KEicScript.obj
 0001:000086b0       ??_EKScript@@UAEPAXI@Z     100096b0 f i KEicScript.obj
 0001:00008710       ??0KEicScript@@QAE@XZ      10009710 f i KEicScript.obj
 0001:00008730       ??0KEicScript@@QAE@ABV0@@Z 10009730 f i KEicScript.obj
 0001:00008760       ??4KEicScript@@QAEAAV0@ABV0@@Z 10009760 f i KEicScript.obj
 0001:00008790       ??1KEicScript@@UAE@XZ      10009790 f i KEicScript.obj
 0001:000087a0       ??_GKEicScript@@UAEPAXI@Z  100097a0 f i KEicScript.obj
 0001:000087c0       ??_EKEicScript@@UAEPAXI@Z  100097c0 f i KEicScript.obj
 0001:00008820       ?Init@KEicScript@@UAEHXZ   10009820 f   KEicScript.obj
 0001:00008940       ?Exit@KEicScript@@UAEXXZ   10009940 f   KEicScript.obj
 0001:00008950       ?Load@KEicScript@@UAEHPAD@Z 10009950 f   KEicScript.obj
 0001:00008980       ?Compile@KEicScript@@UAEHPAD@Z 10009980 f   KEicScript.obj
 0001:00008990       ?Execute@KEicScript@@UAEHHPAPAD@Z 10009990 f   KEicScript.obj
 0001:000089c0       ?RegisterFunction@KEicScript@@UAEHPADPAX@Z 100099c0 f   KEicScript.obj
 0001:000089d0       ?Activate@KLuaScript@@QAEHXZ 100099d0 f i KEicScriptSet.obj
 0001:000089e0       ?SetScriptName@KLuaScript@@UAEXPAD@Z 100099e0 f i KEicScriptSet.obj
 0001:00008a10       ?GetUserTag@KLuaScript@@QAEHXZ 10009a10 f i KEicScriptSet.obj
 0001:00008a20       ?SetTableMember@KLuaScript@@QAEXHHPBD@Z 10009a20 f i KEicScriptSet.obj
 0001:00008a40       ?SetTableMember@KLuaScript@@QAEXHHN@Z 10009a40 f i KEicScriptSet.obj
 0001:00008a70       ?SetTableMember@KLuaScript@@QAEXHHH@Z 10009a70 f i KEicScriptSet.obj
 0001:00008a90       ?SetTableMember@KLuaScript@@QAEXHPBDP6AHPAUlua_State@@@Z@Z 10009a90 f i KEicScriptSet.obj
 0001:00008ab0       ?SetTableMember@KLuaScript@@QAEXHHP6AHPAUlua_State@@@Z@Z 10009ab0 f i KEicScriptSet.obj
 0001:00008ad0       ?SetTableMember@KLuaScript@@QAEXHPBDPAD@Z 10009ad0 f i KEicScriptSet.obj
 0001:00008af0       ?SetTableMember@KLuaScript@@QAEXHPBDH@Z 10009af0 f i KEicScriptSet.obj
 0001:00008b10       ?SetTableMember@KLuaScript@@QAEXHPBDN@Z 10009b10 f i KEicScriptSet.obj
 0001:00008b40       ??0KLuaScript@@QAE@ABV0@@Z 10009b40 f i KEicScriptSet.obj
 0001:00008b80       ??4KLuaScript@@QAEAAV0@ABV0@@Z 10009b80 f i KEicScriptSet.obj
 0001:00008bc0       ??_GKLuaScript@@UAEPAXI@Z  10009bc0 f i KEicScriptSet.obj
 0001:00008be0       ??_EKLuaScript@@UAEPAXI@Z  10009be0 f i KEicScriptSet.obj
 0001:00008c40       ?GetCount@KScriptSet@@QAEKXZ 10009c40 f i KEicScriptSet.obj
 0001:00008c50       ?GetKeyStyle@KScriptSet@@QAEHXZ 10009c50 f i KEicScriptSet.obj
 0001:00008c60       ?GetScriptFileNameFromKey@KScriptSet@@UAEPADPAD@Z 10009c60 f i KEicScriptSet.obj
 0001:00008c70       ?GetScriptFileNameFromKey@KScriptSet@@UAEPADK@Z 10009c70 f i KEicScriptSet.obj
 0001:00008c80       ??0KScriptSet@@QAE@ABV0@@Z 10009c80 f i KEicScriptSet.obj
 0001:00008cb0       ??4KScriptSet@@QAEAAV0@ABV0@@Z 10009cb0 f i KEicScriptSet.obj
 0001:00008ce0       ??0KEicScriptSet@@QAE@ABV0@@Z 10009ce0 f i KEicScriptSet.obj
 0001:00008d10       ??4KEicScriptSet@@QAEAAV0@ABV0@@Z 10009d10 f i KEicScriptSet.obj
 0001:00008d40       ??0KEicScriptSet@@QAE@XZ   10009d40 f   KEicScriptSet.obj
 0001:00008d60       ??1KEicScriptSet@@QAE@XZ   10009d60 f   KEicScriptSet.obj
 0001:00008d70       ?g_InitEngine@@YAHXZ       10009d70 f   KEngine.obj
 0001:00008dd0       ?g_ExitEngine@@YAXXZ       10009dd0 f   KEngine.obj
 0001:00008e00       ??4KEvent@@QAEAAV0@ABV0@@Z 10009e00 f i KEvent.obj
 0001:00008e10       ??0KEvent@@QAE@XZ          10009e10 f   KEvent.obj
 0001:00008e40       ??1KEvent@@QAE@XZ          10009e40 f   KEvent.obj
 0001:00008e50       ?Signal@KEvent@@QAEXXZ     10009e50 f i KEvent.obj
 0001:00008e60       ?Wait@KEvent@@QAEXXZ       10009e60 f i KEvent.obj
 0001:00008e70       ?TimedWait@KEvent@@QAE_NJ@Z 10009e70 f i KEvent.obj
 0001:00008e90       ??0KFile@@QAE@XZ           10009e90 f   KFile.obj
 0001:00008eb0       ??1KFile@@QAE@XZ           10009eb0 f   KFile.obj
 0001:00008ec0       ?Open@KFile@@QAEHPAD@Z     10009ec0 f   KFile.obj
 0001:00008f20       ?Create@KFile@@QAEHPAD@Z   10009f20 f   KFile.obj
 0001:00008f90       ?Append@KFile@@QAEHPAD@Z   10009f90 f   KFile.obj
 0001:00009020       ?Close@KFile@@QAEXXZ       1000a020 f   KFile.obj
 0001:00009050       ?Read@KFile@@QAEKPAXK@Z    1000a050 f   KFile.obj
 0001:00009090       ?Write@KFile@@QAEKPAXK@Z   1000a090 f   KFile.obj
 0001:000090d0       ?Seek@KFile@@QAEKJK@Z      1000a0d0 f   KFile.obj
 0001:00009100       ?Tell@KFile@@QAEKXZ        1000a100 f   KFile.obj
 0001:00009110       ?Size@KFile@@QAEKXZ        1000a110 f   KFile.obj
 0001:00009140       ?g_DeleteFiles@@YAXPAD0@Z  1000a140 f   KFileCopy.obj
 0001:00009270       ?g_UpdateFiles@@YAXPAD0@Z  1000a270 f   KFileCopy.obj
 0001:000093f0       ??0KFileDialog@@QAE@XZ     1000a3f0 f   KFileDialog.obj
 0001:00009480       ?SetTitle@KFileDialog@@QAEXPAD@Z 1000a480 f   KFileDialog.obj
 0001:000094a0       ?SetFlags@KFileDialog@@QAEXK@Z 1000a4a0 f   KFileDialog.obj
 0001:000094b0       ?SetFilter@KFileDialog@@QAEXPAD@Z 1000a4b0 f   KFileDialog.obj
 0001:000094f0       ?SetDefExt@KFileDialog@@QAEXPAD@Z 1000a4f0 f   KFileDialog.obj
 0001:00009510       ?SetFilePath@KFileDialog@@QAEXPAD@Z 1000a510 f   KFileDialog.obj
 0001:00009550       ?SetFileName@KFileDialog@@QAEXPAD@Z 1000a550 f   KFileDialog.obj
 0001:00009570       ?SetFileTitle@KFileDialog@@QAEXPAD@Z 1000a570 f   KFileDialog.obj
 0001:00009590       ?Open@KFileDialog@@QAEHXZ  1000a590 f   KFileDialog.obj
 0001:000095d0       ?Save@KFileDialog@@QAEHXZ  1000a5d0 f   KFileDialog.obj
 0001:00009610       ?RemoveTwoPointPath@@YAHPADH@Z 1000a610 f   KFilePath.obj
 0001:00009680       ?RemoveOnePointPath@@YAHPADH@Z 1000a680 f   KFilePath.obj
 0001:000096e0       ?RemoveAllPointPath@@YAHPADH@Z 1000a6e0 f   KFilePath.obj
 0001:00009700       ?g_SetRootPath@@YAXPAD@Z   1000a700 f   KFilePath.obj
 0001:00009760       ?g_GetRootPath@@YAXPAD@Z   1000a760 f   KFilePath.obj
 0001:00009780       ?g_SetFilePath@@YAXPAD@Z   1000a780 f   KFilePath.obj
 0001:000097d0       ?g_GetFilePath@@YAXPAD@Z   1000a7d0 f   KFilePath.obj
 0001:000097f0       ?g_GetFullPath@@YAXPAD0@Z  1000a7f0 f   KFilePath.obj
 0001:000098a0       ?g_GetHalfPath@@YAXPAD0@Z  1000a8a0 f   KFilePath.obj
 0001:000098f0       ?g_GetPackPath@@YAXPAD0@Z  1000a8f0 f   KFilePath.obj
 0001:00009940       ?g_GetDiskPath@@YAXPAD0@Z  1000a940 f   KFilePath.obj
 0001:000099b0       ?g_CreatePath@@YAXPAD@Z    1000a9b0 f   KFilePath.obj
 0001:00009ac0       ?g_FileExists@@YAHPAD@Z    1000aac0 f   KFilePath.obj
 0001:00009b10       ?g_FileName2Id@@YAKPAD@Z   1000ab10 f   KFilePath.obj
 0001:00009b60       ?g_ChangeFileExt@@YAXPAD0@Z 1000ab60 f   KFilePath.obj
 0001:00009bb0       ?g_ExtractFileName@@YAXPAD0@Z 1000abb0 f   KFilePath.obj
 0001:00009bf0       ?g_ExtractFilePath@@YAXPAD0@Z 1000abf0 f   KFilePath.obj
 0001:00009c30       ??0KFindBinTreeNode@@QAE@XZ 1000ac30 f i KFindBinTree.obj
 0001:00009c50       ??1KFindBinTreeNode@@QAE@XZ 1000ac50 f i KFindBinTree.obj
 0001:00009c90       ?CanInsert@KFindBinTreeNode@@QAEHXZ 1000ac90 f i KFindBinTree.obj
 0001:00009cb0       ?GetRef@KFindBinTreeNode@@QBEHXZ 1000acb0 f i KFindBinTree.obj
 0001:00009cc0       ??4KFindBinTreeNode@@QAEAAV0@ABV0@@Z 1000acc0 f i KFindBinTree.obj
 0001:00009ce0       ??0KFindBinTree@@QAE@XZ    1000ace0 f i KFindBinTree.obj
 0001:00009cf0       ??1KFindBinTree@@QAE@XZ    1000acf0 f i KFindBinTree.obj
 0001:00009d20       ??_GKFindBinTreeNode@@QAEPAXI@Z 1000ad20 f i KFindBinTree.obj
 0001:00009d60       ?GetCount@KFindBinTree@@QAEHXZ 1000ad60 f i KFindBinTree.obj
 0001:00009d70       ??4KFindBinTree@@QAEAAV0@ABV0@@Z 1000ad70 f i KFindBinTree.obj
 0001:00009d90       ?Init@KFindBinTreeNode@@QAEXH@Z 1000ad90 f   KFindBinTree.obj
 0001:00009e20       ?Insert@KFindBinTreeNode@@QAEHH@Z 1000ae20 f   KFindBinTree.obj
 0001:00009e70       ?Remove@KFindBinTreeNode@@QAEXHH@Z 1000ae70 f   KFindBinTree.obj
 0001:00009eb0       ?Init@KFindBinTree@@QAEXH@Z 1000aeb0 f   KFindBinTree.obj
 0001:00009f00       ?FindFree@KFindBinTree@@QAEHXZ 1000af00 f   KFindBinTree.obj
 0001:00009f20       ?Remove@KFindBinTree@@QAEXH@Z 1000af20 f   KFindBinTree.obj
 0001:00009f40       ??0KFont@@QAE@XZ           1000af40 f   KFont.obj
 0001:00009f90       ??1KFont@@QAE@XZ           1000af90 f   KFont.obj
 0001:00009fe0       ?Clear@KFont@@QAEXXZ       1000afe0 f   KFont.obj
 0001:0000a010       ?SetCharaset@KFont@@QAEXW4CHARASET@@@Z 1000b010 f   KFont.obj
 0001:0000a020       ?Load@KFont@@QAEHPADW4CHARASET@@@Z 1000b020 f   KFont.obj
 0001:0000a180       ?Save@KFont@@QAEHPAD@Z     1000b180 f   KFont.obj
 0001:0000a2a0       ?DrawFont@KFont@@IAEXHHH@Z 1000b2a0 f   KFont.obj
 0001:0000a300       ?DrawFontAlpha@KFont@@IAEXHHHH@Z 1000b300 f   KFont.obj
 0001:0000a380       ?DrawWord@KFont@@QAEXHHHH@Z 1000b380 f   KFont.obj
 0001:0000a480       ?DrawTextA@KFont@@QAEXHHPAD@Z 1000b480 f   KFont.obj
 0001:0000a600       ?DrawTextAlpha@KFont@@QAEXHHHPAD@Z 1000b600 f   KFont.obj
 0001:0000a790       ?SetColor@KFont@@QAEXEEE@Z 1000b790 f   KFont.obj
 0001:0000a7d0       ?SetLine@KFont@@QAEXHH@Z   1000b7d0 f   KFont.obj
 0001:0000a7f0       ?MakeText@KFont@@QAEXPAD@Z 1000b7f0 f   KFont.obj
 0001:0000a930       ?MakeFont@KFont@@QAEHPADHH@Z 1000b930 f   KFont.obj
 0001:0000aaf0       ?AddWord@KFont@@IAEHHPAE@Z 1000baf0 f   KFont.obj
 0001:0000ab90       ?GetFontRect@KFont@@IAEHHHPAVKBitmap@@PAE@Z 1000bb90 f   KFont.obj
 0001:0000abe0       ?GetFontLine@KFont@@IAEHHHPAVKBitmap@@PAE@Z 1000bbe0 f   KFont.obj
 0001:0000ac60       ??4KGifFile@@QAEAAV0@ABV0@@Z 1000bc60 f i KGifFile.obj
 0001:0000ac80       ??1KGifFile@@QAE@XZ        1000bc80 f i KGifFile.obj
 0001:0000ac90       ??0KGifFile@@QAE@XZ        1000bc90 f   KGifFile.obj
 0001:0000acb0       ?read_byte@KGifFile@@AAEEXZ 1000bcb0 f   KGifFile.obj
 0001:0000acd0       ?read_word@KGifFile@@AAEGXZ 1000bcd0 f   KGifFile.obj
 0001:0000acf0       ?read_header@KGifFile@@AAEHXZ 1000bcf0 f   KGifFile.obj
 0001:0000adf0       ?read_color_table@KGifFile@@AAEHXZ 1000bdf0 f   KGifFile.obj
 0001:0000ae40       ?read_image_desc@KGifFile@@AAEHXZ 1000be40 f   KGifFile.obj
 0001:0000aed0       ?read_extension@KGifFile@@AAEHXZ 1000bed0 f   KGifFile.obj
 0001:0000af60       ?Open@KGifFile@@QAEHPADPAVKBitmap@@@Z 1000bf60 f   KGifFile.obj
 0001:0000b0f0       ?FirstImage@KGifFile@@QAEHXZ 1000c0f0 f   KGifFile.obj
 0001:0000b100       ?NextImage@KGifFile@@QAEHXZ 1000c100 f   KGifFile.obj
 0001:0000b1b0       ?lzw_decode@KGifFile@@AAEXXZ 1000c1b0 f   KGifFile.obj
 0001:0000b450       ?clear_table@KGifFile@@AAEXXZ 1000c450 f   KGifFile.obj
 0001:0000b480       ?get_code@KGifFile@@AAEXXZ 1000c480 f   KGifFile.obj
 0001:0000b600       ?get_string@KGifFile@@AAEXH@Z 1000c600 f   KGifFile.obj
 0001:0000b660       ?output_string@KGifFile@@AAEXXZ 1000c660 f   KGifFile.obj
 0001:0000b760       ?g_RemoveSamePixel@@YAHPAVKBitmap@@0@Z 1000c760 f   KGraphics.obj
 0001:0000b7e0       ?g_RemoveDiffPixel@@YAHPAVKBitmap@@0@Z 1000c7e0 f   KGraphics.obj
 0001:0000b860       ?g_RemoveNoneZeroPixel@@YAHPAVKBitmap@@0@Z 1000c860 f   KGraphics.obj
 0001:0000b8f0       ?g_RemoveZeroPixel@@YAHPAVKBitmap@@0@Z 1000c8f0 f   KGraphics.obj
 0001:0000b980       ??0KHashList@@QAE@ABV0@@Z  1000c980 f i KHashList.obj
 0001:0000b9b0       ??4KHashList@@QAEAAV0@ABV0@@Z 1000c9b0 f i KHashList.obj
 0001:0000b9e0       ??1KHashList@@QAE@XZ       1000c9e0 f i KHashList.obj
 0001:0000b9f0       ??0KHashList@@QAE@XZ       1000c9f0 f   KHashList.obj
 0001:0000ba20       ??0KHashTable@@QAE@XZ      1000ca20 f i KHashNode.obj
 0001:0000ba80       ??0KHashTable@@QAE@ABV0@@Z 1000ca80 f i KHashNode.obj
 0001:0000bae0       ??4KHashTable@@QAEAAV0@ABV0@@Z 1000cae0 f i KHashNode.obj
 0001:0000bb30       ??1KHashTable@@QAE@XZ      1000cb30 f i KHashNode.obj
 0001:0000bb90       ?SetHashTable@KHashNode@@QAEXPAVKHashTable@@@Z 1000cb90 f i KHashNode.obj
 0001:0000bba0       ??0KHashNode@@QAE@ABV0@@Z  1000cba0 f i KHashNode.obj
 0001:0000bbe0       ??4KHashNode@@QAEAAV0@ABV0@@Z 1000cbe0 f i KHashNode.obj
 0001:0000bc20       ??1KHashNode@@UAE@XZ       1000cc20 f i KHashNode.obj
 0001:0000bc30       ??_GKHashNode@@UAEPAXI@Z   1000cc30 f i KHashNode.obj
 0001:0000bc50       ??_EKHashNode@@UAEPAXI@Z   1000cc50 f i KHashNode.obj
 0001:0000bcb0       ??0KHashNode@@QAE@XZ       1000ccb0 f   KHashNode.obj
 0001:0000bcd0       ?SetName@KHashNode@@UAEXPAD@Z 1000ccd0 f   KHashNode.obj
 0001:0000bd30       ?g_Hash@@YAKPAD@Z          1000cd30 f   KHashTable.obj
 0001:0000bd60       ?Add@KHashTable@@QAEXPAVKStrNode@@@Z 1000cd60 f   KHashTable.obj
 0001:0000be10       ?Delete@KHashTable@@QAEXPAD@Z 1000ce10 f   KHashTable.obj
 0001:0000be50       ?Find@KHashTable@@QAEPAVKStrNode@@PAD@Z 1000ce50 f   KHashTable.obj
 0001:0000be80       ??4KIme@@QAEAAV0@ABV0@@Z   1000ce80 f i Kime.obj
 0001:0000be90       ??0KIme@@QAE@XZ            1000ce90 f   Kime.obj
 0001:0000bea0       ??1KIme@@QAE@XZ            1000cea0 f   Kime.obj
 0001:0000beb0       ?ResetIme@KIme@@QAEXXZ     1000ceb0 f   Kime.obj
 0001:0000bec0       ?IsIme@KIme@@QAEHXZ        1000cec0 f   Kime.obj
 0001:0000bef0       ?OpenIME@KIme@@QAEXXZ      1000cef0 f   Kime.obj
 0001:0000bf40       ?CloseIME@KIme@@QAEXXZ     1000cf40 f   Kime.obj
 0001:0000bf90       ?TurnOff@KIme@@QAEXXZ      1000cf90 f   Kime.obj
 0001:0000bfa0       ?TurnOn@KIme@@QAEXXZ       1000cfa0 f   Kime.obj
 0001:0000bfb0       ?EnableLanguageChange@KIme@@QAEXXZ 1000cfb0 f   Kime.obj
 0001:0000bfc0       ?DisableLanguageChange@KIme@@QAEXXZ 1000cfc0 f   Kime.obj
 0001:0000bfd0       ?WndMsg@KIme@@QAEHPAUHWND__@@IIJ@Z 1000cfd0 f   Kime.obj
 0001:0000c010       ?g_SetIniCodec@@YAXH@Z     1000d010 f   KIniFile.obj
 0001:0000c020       ??0KIniFile@@QAE@XZ        1000d020 f   KIniFile.obj
 0001:0000c070       ??1KIniFile@@QAE@XZ        1000d070 f   KIniFile.obj
 0001:0000c0c0       ?Load@KIniFile@@QAEHPBD@Z  1000d0c0 f   KIniFile.obj
 0001:0000c1e0       ?LoadPack@KIniFile@@QAEHPBD@Z 1000d1e0 f   KIniFile.obj
 0001:0000c3f0       ?Save@KIniFile@@QAEHPBD@Z  1000d3f0 f   KIniFile.obj
 0001:0000c540       ?SavePack@KIniFile@@QAEHPBD@Z 1000d540 f   KIniFile.obj
 0001:0000c720       ?Clear@KIniFile@@QAEXXZ    1000d720 f   KIniFile.obj
 0001:0000c730       ?ReadLine@KIniFile@@AAEHPADJ@Z 1000d730 f   KIniFile.obj
 0001:0000c780       ?IsKeyChar@KIniFile@@AAEHD@Z 1000d780 f   KIniFile.obj
 0001:0000c7c0       ?CreateIniLink@KIniFile@@AAEXPAXJ@Z 1000d7c0 f   KIniFile.obj
 0001:0000c870       ?ReleaseIniLink@KIniFile@@AAEXXZ 1000d870 f   KIniFile.obj
 0001:0000c900       ?SplitKeyValue@KIniFile@@AAEPADPAD@Z 1000d900 f   KIniFile.obj
 0001:0000c920       ?String2Id@KIniFile@@AAEKPBD@Z 1000d920 f   KIniFile.obj
 0001:0000c970       ?IsSectionExist@KIniFile@@QAEHPBD@Z 1000d970 f   KIniFile.obj
 0001:0000ca00       ?EraseSection@KIniFile@@QAEXPBD@Z 1000da00 f   KIniFile.obj
 0001:0000cad0       ?EraseKey@KIniFile@@QAEXPBD0@Z 1000dad0 f   KIniFile.obj
 0001:0000cbb0       ?SetKeyValue@KIniFile@@AAEHPBD00@Z 1000dbb0 f   KIniFile.obj
 0001:0000cd70       ?GetKeyValue@KIniFile@@AAEHPBD0PADK@Z 1000dd70 f   KIniFile.obj
 0001:0000ce60       ?GetString@KIniFile@@QAEHPBD00PADK@Z 1000de60 f   KIniFile.obj
 0001:0000cea0       ?GetInteger@KIniFile@@QAEHPBD0HPAH@Z 1000dea0 f   KIniFile.obj
 0001:0000cef0       ?GetInteger2@KIniFile@@QAEXPBD0PAH1@Z 1000def0 f   KIniFile.obj
 0001:0000cf60       ?GetFloat@KIniFile@@QAEHPBD0MPAM@Z 1000df60 f   KIniFile.obj
 0001:0000cfb0       ?GetFloat2@KIniFile@@QAEXPBD0PAM1@Z 1000dfb0 f   KIniFile.obj
 0001:0000d020       ?GetStruct@KIniFile@@QAEXPBD0PAXK@Z 1000e020 f   KIniFile.obj
 0001:0000d0c0       ?WriteString@KIniFile@@QAEXPBD00@Z 1000e0c0 f   KIniFile.obj
 0001:0000d0e0       ?WriteInteger@KIniFile@@QAEXPBD0H@Z 1000e0e0 f   KIniFile.obj
 0001:0000d120       ?WriteInteger2@KIniFile@@QAEXPBD0HH@Z 1000e120 f   KIniFile.obj
 0001:0000d160       ?WriteFloat@KIniFile@@QAEXPBD0M@Z 1000e160 f   KIniFile.obj
 0001:0000d1a0       ?WriteFloat2@KIniFile@@QAEXPBD0MM@Z 1000e1a0 f   KIniFile.obj
 0001:0000d1f0       ?WriteStruct@KIniFile@@QAEXPBD0PAXK@Z 1000e1f0 f   KIniFile.obj
 0001:0000d280       ?GetNextSection@KIniFile@@QAEHPBDPAD@Z 1000e280 f   KIniFile.obj
 0001:0000d370       ?GetNextKey@KIniFile@@QAEHPBD0PAD@Z 1000e370 f   KIniFile.obj
 0001:0000d490       ?GetSectionCount@KIniFile@@QAEHXZ 1000e490 f   KIniFile.obj
 0001:0000d510       ?GetRect@KIniFile@@QAEXPBD0PAUtagRECT@@@Z 1000e510 f   KIniFile.obj
 0001:0000d570       ?GetFloat3@KIniFile@@QAEXPBD0PAM@Z 1000e570 f   KIniFile.obj
 0001:0000d5d0       ?GetFloat4@KIniFile@@QAEXPBD0PAM@Z 1000e5d0 f   KIniFile.obj
 0001:0000d630       ?GetBool@KIniFile@@QAEXPBD0PAH@Z 1000e630 f   KIniFile.obj
 0001:0000d660       ??0KJpgFile@@QAE@XZ        1000e660 f i KJpgFile.obj
 0001:0000d670       ??4KJpgFile@@QAEAAV0@ABV0@@Z 1000e670 f i KJpgFile.obj
 0001:0000d690       ??1KJpgFile@@QAE@XZ        1000e690 f i KJpgFile.obj
 0001:0000d6a0       ?Load@KJpgFile@@QAEHPADPAVKBitmap16@@@Z 1000e6a0 f   KJpgFile.obj
 0001:0000d870       ?GetFuncKey@KKeyboard@@QAEEXZ 1000e870 f i KKeyboard.obj
 0001:0000d880       ??4KKeyboard@@QAEAAV0@ABV0@@Z 1000e880 f i KKeyboard.obj
 0001:0000d8a0       ??0KKeyboard@@QAE@XZ       1000e8a0 f   KKeyboard.obj
 0001:0000d8d0       ?UpdateState@KKeyboard@@QAEXXZ 1000e8d0 f   KKeyboard.obj
 0001:0000d920       ?IsDown@KKeyboard@@QAEHE@Z 1000e920 f   KKeyboard.obj
 0001:0000d940       ?MakeFuncKey@KKeyboard@@IAEXXZ 1000e940 f   KKeyboard.obj
 0001:0000d990       ?MakeMessage@KKeyboard@@IAEXH@Z 1000e990 f   KKeyboard.obj
 0001:0000da00       ??0KLinkArray@@QAE@XZ      1000ea00 f i KLinkArray.obj
 0001:0000da10       ?GetNext@KLinkArray@@QBEHH@Z 1000ea10 f i KLinkArray.obj
 0001:0000da30       ?GetPrev@KLinkArray@@QBEHH@Z 1000ea30 f i KLinkArray.obj
 0001:0000da50       ??4KLinkArray@@QAEAAV0@ABV0@@Z 1000ea50 f i KLinkArray.obj
 0001:0000da60       ??1KLinkArray@@QAE@XZ      1000ea60 f   KLinkArray.obj
 0001:0000da80       ?Init@KLinkArray@@QAEXH@Z  1000ea80 f   KLinkArray.obj
 0001:0000dae0       ??_H@YGXPAXIHP6EX0@Z@Z     1000eae0 f i KLinkArray.obj
 0001:0000db10       ?Remove@KLinkArray@@QAEXH@Z 1000eb10 f   KLinkArray.obj
 0001:0000db80       ?Insert@KLinkArray@@QAEXH@Z 1000eb80 f   KLinkArray.obj
 0001:0000dbe0       ??0KLuaScript@@QAE@XZ      1000ebe0 f   KLuaScript.obj
 0001:0000dc70       ??0KLuaScript@@QAE@H@Z     1000ec70 f   KLuaScript.obj
 0001:0000dd00       ??1KLuaScript@@UAE@XZ      1000ed00 f   KLuaScript.obj
 0001:0000dd50       ?LoadBuffer@KLuaScript@@QAEHPAEK@Z 1000ed50 f   KLuaScript.obj
 0001:0000dd90       ?Load@KLuaScript@@UAEHPAD@Z 1000ed90 f   KLuaScript.obj
 0001:0000def0       ?Execute@KLuaScript@@UAEHXZ 1000eef0 f   KLuaScript.obj
 0001:0000df20       ?ExecuteCode@KLuaScript@@QAEHXZ 1000ef20 f   KLuaScript.obj
 0001:0000df70       ?CallFunction@KLuaScript@@AAEHPADH00@Z 1000ef70 f   KLuaScript.obj
 0001:0000e150       ?CallFunction@KLuaScript@@UAAHPADH0ZZ 1000f150 f   KLuaScript.obj
 0001:0000e170       ?GetValuesFromStack@KLuaScript@@QAAHPADZZ 1000f170 f   KLuaScript.obj
 0001:0000e270       ?Init@KLuaScript@@UAEHXZ   1000f270 f   KLuaScript.obj
 0001:0000e2d0       ?RegisterFunction@KLuaScript@@UAEHPADPAX@Z 1000f2d0 f   KLuaScript.obj
 0001:0000e310       ?Compile@KLuaScript@@UAEHPAD@Z 1000f310 f   KLuaScript.obj
 0001:0000e320       ?RegisterFunctions@KLuaScript@@QAEHQAUTLua_Funcs@@H@Z 1000f320 f   KLuaScript.obj
 0001:0000e380       ?RegisterStandardFunctions@KLuaScript@@QAEXXZ 1000f380 f   KLuaScript.obj
 0001:0000e3c0       ?Exit@KLuaScript@@UAEXXZ   1000f3c0 f   KLuaScript.obj
 0001:0000e3f0       ?ScriptError@KLuaScript@@QAEXH@Z 1000f3f0 f   KLuaScript.obj
 0001:0000e430       ?ScriptError@KLuaScript@@QAEXHH@Z 1000f430 f   KLuaScript.obj
 0001:0000e470       ?SafeCallBegin@KLuaScript@@QAEXPAH@Z 1000f470 f   KLuaScript.obj
 0001:0000e490       ?SafeCallEnd@KLuaScript@@QAEXH@Z 1000f490 f   KLuaScript.obj
 0001:0000e4b0       ?Stop@KLuaScript@@QAEHXZ   1000f4b0 f   KLuaScript.obj
 0001:0000e4d0       ?Resume@KLuaScript@@QAEHXZ 1000f4d0 f   KLuaScript.obj
 0001:0000e4f0       ?CreateTable@KLuaScript@@QAEKXZ 1000f4f0 f   KLuaScript.obj
 0001:0000e530       ?SetGlobalName@KLuaScript@@QAEXPAD@Z 1000f530 f   KLuaScript.obj
 0001:0000e550       ?ModifyTable@KLuaScript@@QAEKPAD@Z 1000f550 f   KLuaScript.obj
 0001:0000e5b0       ?GetMemPtr@KMemClass1@@QAEPAXXZ 1000f5b0 f i KLubCmpl_Blocker.obj
 0001:0000e5c0       ?GetMemLen@KMemClass1@@QAEKXZ 1000f5c0 f i KLubCmpl_Blocker.obj
 0001:0000e5d0       ??4KMemClass1@@QAEAAV0@ABV0@@Z 1000f5d0 f i KLubCmpl_Blocker.obj
 0001:0000e5f0       ?ScanIf@KLubCmpl_Blocker@@QAEXPAVKLineNode@@@Z 1000f5f0 f   KLubCmpl_Blocker.obj
 0001:0000e8c0       ??_GKStackNode@@UAEPAXI@Z  1000f8c0 f i KLubCmpl_Blocker.obj
 0001:0000e8c0       ??_EKStackNode@@UAEPAXI@Z  1000f8c0 f i KLubCmpl_Blocker.obj
 0001:0000e8e0       ??1KStackNode@@UAE@XZ      1000f8e0 f i KLubCmpl_Blocker.obj
 0001:0000e8f0       ?ExchangeCurLines@KLubCmpl_Blocker@@QAEHXZ 1000f8f0 f   KLubCmpl_Blocker.obj
 0001:0000f520       ?Remove@KNode@@QAEXXZ      10010520 f i KLubCmpl_Blocker.obj
 0001:0000f550       ??_GKLineNode@@UAEPAXI@Z   10010550 f i KLubCmpl_Blocker.obj
 0001:0000f550       ??_EKLineNode@@UAEPAXI@Z   10010550 f i KLubCmpl_Blocker.obj
 0001:0000f570       ??1KLineNode@@UAE@XZ       10010570 f i KLubCmpl_Blocker.obj
 0001:0000f580       ?Load@KLubCmpl_Blocker@@QAEPAVKLineNode@@PAD@Z 10010580 f   KLubCmpl_Blocker.obj
 0001:0000f790       ?PushKey@KLubCmpl_Blocker@@QAEXPAVKStackNode@@@Z 10010790 f   KLubCmpl_Blocker.obj
 0001:0000f7e0       ?PopKey@KLubCmpl_Blocker@@QAEPAVKStackNode@@XZ 100107e0 f   KLubCmpl_Blocker.obj
 0001:0000f850       ?GetBuffer@KLubCmpl_Blocker@@QAEHAAPAVKMemClass1@@@Z 10010850 f   KLubCmpl_Blocker.obj
 0001:0000f9a0       ?Write@KLubCmpl_Blocker@@QAEHPAD@Z 100109a0 f   KLubCmpl_Blocker.obj
 0001:0000fad0       ?Print@KLubCmpl_Blocker@@QAEXXZ 10010ad0 f   KLubCmpl_Blocker.obj
 0001:0000fb60       ??1KMemList@@QAE@XZ        10010b60 f i KMemBase.obj
 0001:0000fbe0       ??1KList@@QAE@XZ           10010be0 f i KMemBase.obj
 0001:0000fbf0       ??0KMemList@@QAE@XZ        10010bf0 f i KMemBase.obj
 0001:0000fc20       ?g_MemInfo@@YAXXZ          10010c20 f   KMemBase.obj
 0001:0000fc70       ?g_MemAlloc@@YAPAXK@Z      10010c70 f   KMemBase.obj
 0001:0000fcf0       ?g_MemFree@@YAXPAX@Z       10010cf0 f   KMemBase.obj
 0001:0000fd60       ?g_MemCopy@@YAXPAX0K@Z     10010d60 f   KMemBase.obj
 0001:0000fd90       ?g_MemCopyMmx@@YAXPAX0K@Z  10010d90 f   KMemBase.obj
 0001:0000fdd0       ?g_MemComp@@YAHPAX0K@Z     10010dd0 f   KMemBase.obj
 0001:0000fe00       ?g_MemFill@@YAXPAXKE@Z     10010e00 f   KMemBase.obj
 0001:0000fe30       ?g_MemFill@@YAXPAXKG@Z     10010e30 f   KMemBase.obj
 0001:0000fe60       ?g_MemFill@@YAXPAXKK@Z     10010e60 f   KMemBase.obj
 0001:0000fe80       ?g_MemZero@@YAXPAXK@Z      10010e80 f   KMemBase.obj
 0001:0000fea0       ?g_MemXore@@YAXPAXKK@Z     10010ea0 f   KMemBase.obj
 0001:0000fec0       ??0KMemClass@@QAE@XZ       10010ec0 f   KMemClass.obj
 0001:0000fed0       ??1KMemClass@@QAE@XZ       10010ed0 f   KMemClass.obj
 0001:0000fee0       ?Alloc@KMemClass@@QAEPAXK@Z 10010ee0 f   KMemClass.obj
 0001:0000ff20       ?Free@KMemClass@@QAEXXZ    10010f20 f   KMemClass.obj
 0001:0000ff50       ?Zero@KMemClass@@QAEXXZ    10010f50 f   KMemClass.obj
 0001:0000ff70       ?Fill@KMemClass@@QAEXE@Z   10010f70 f   KMemClass.obj
 0001:0000ff90       ?Fill@KMemClass@@QAEXG@Z   10010f90 f   KMemClass.obj
 0001:0000ffb0       ?Fill@KMemClass@@QAEXK@Z   10010fb0 f   KMemClass.obj
 0001:0000ffd0       ?Alloc@KMemClass1@@QAEPAXK@Z 10010fd0 f   KMemClass1.obj
 0001:0000fff0       ?Free@KMemClass1@@QAEXXZ   10010ff0 f   KMemClass1.obj
 0001:00010040       ??0KMemManager@@QAE@XZ     10011040 f   KMemManager.obj
 0001:000100c0       ??1KMemManager@@QAE@XZ     100110c0 f   KMemManager.obj
 0001:00010150       ?NewChunk@KMemManager@@AAEPAXHH@Z 10011150 f   KMemManager.obj
 0001:000101e0       ?FreeChunk@KMemManager@@AAEXPAUKChunkHeader@1@@Z 100111e0 f   KMemManager.obj
 0001:00010220       ?Malloc@KMemManager@@QAEPAXH@Z 10011220 f   KMemManager.obj
 0001:000102c0       ?Calloc@KMemManager@@QAEPAXH@Z 100112c0 f   KMemManager.obj
 0001:000102e0       ?Free@KMemManager@@QAEXPAX@Z 100112e0 f   KMemManager.obj
 0001:00010360       ??0KMemStack@@QAE@XZ       10011360 f   KMemStack.obj
 0001:00010390       ??1KMemStack@@QAE@XZ       10011390 f   KMemStack.obj
 0001:000103a0       ?Init@KMemStack@@QAEXH@Z   100113a0 f   KMemStack.obj
 0001:000103c0       ?Push@KMemStack@@QAEPAXH@Z 100113c0 f   KMemStack.obj
 0001:00010410       ?Free@KMemStack@@QAEXPAX@Z 10011410 f   KMemStack.obj
 0001:00010420       ?AllocNewChunk@KMemStack@@QAEHXZ 10011420 f   KMemStack.obj
 0001:00010480       ?FreeAllChunks@KMemStack@@QAEXXZ 10011480 f   KMemStack.obj
 0001:000104d0       ?GetChunkSize@KMemStack@@QAEHXZ 100114d0 f   KMemStack.obj
 0001:000104e0       ?GetStackSize@KMemStack@@QAEHXZ 100114e0 f   KMemStack.obj
 0001:00010510       ??0KList@@QAE@XZ           10011510 f i KMessage.obj
 0001:00010560       ?g_SendMessage@@YAXHHHH@Z  10011560 f   KMessage.obj
 0001:000105d0       ?g_PeekMessage@@YAHPAUKMessage@@@Z 100115d0 f   KMessage.obj
 0001:00010610       ?g_GetMessage@@YAHPAUKMessage@@@Z 10011610 f   KMessage.obj
 0001:00010690       ?g_ClearMessage@@YAXXZ     10011690 f   KMessage.obj
 0001:000106c0       ?SetWorkingMode@KMouse@@QAEXE@Z 100116c0 f i KMouse.obj
 0001:000106d0       ?SetKeyState@KMouse@@QAEXE@Z 100116d0 f i KMouse.obj
 0001:000106e0       ??4KMouse@@QAEAAV0@ABV0@@Z 100116e0 f i KMouse.obj
 0001:00010700       ??0KMouse@@QAE@XZ          10011700 f   KMouse.obj
 0001:00010740       ?SetWorkingRect@KMouse@@QAEXPAUtagRECT@@@Z 10011740 f   KMouse.obj
 0001:00010760       ?SetPos@KMouse@@QAEXPAUtagPOINT@@@Z 10011760 f   KMouse.obj
 0001:00010780       ?GetPos@KMouse@@QAEXPAUtagPOINT@@@Z 10011780 f   KMouse.obj
 0001:000107a0       ?UpdateState@KMouse@@QAEXXZ 100117a0 f   KMouse.obj
 0001:00010870       ?MakeMessage@KMouse@@IAEXHHEE@Z 10011870 f   KMouse.obj
 0001:000109c0       ??4KThread@@QAEAAV0@ABV0@@Z 100119c0 f i KMp3Music.obj
 0001:000109f0       ??0KMusic@@QAE@ABV0@@Z     100119f0 f i KMp3Music.obj
 0001:00010a80       ??4KMusic@@QAEAAV0@ABV0@@Z 10011a80 f i KMp3Music.obj
 0001:00010b20       ??_GKMusic@@UAEPAXI@Z      10011b20 f i KMp3Music.obj
 0001:00010b40       ??_EKMusic@@UAEPAXI@Z      10011b40 f i KMp3Music.obj
 0001:00010ba0       ??0KMp3Music@@QAE@XZ       10011ba0 f i KMp3Music.obj
 0001:00010c00       ??0KMp3Music@@QAE@ABV0@@Z  10011c00 f i KMp3Music.obj
 0001:00010ce0       ??4KMp3Music@@QAEAAV0@ABV0@@Z 10011ce0 f i KMp3Music.obj
 0001:00010dd0       ??1KMp3Music@@UAE@XZ       10011dd0 f i KMp3Music.obj
 0001:00010e30       ??_GKMp3Music@@UAEPAXI@Z   10011e30 f i KMp3Music.obj
 0001:00010e50       ??_EKMp3Music@@UAEPAXI@Z   10011e50 f i KMp3Music.obj
 0001:00010eb0       ?Open@KMp3Music@@UAEHPAD@Z 10011eb0 f   KMp3Music.obj
 0001:00010ef0       ?InitSoundFormat@KMp3Music@@MAEXXZ 10011ef0 f   KMp3Music.obj
 0001:00010f10       ?ReadWaveData@KMp3Music@@MAEKPAEK@Z 10011f10 f   KMp3Music.obj
 0001:00010f30       ?Seek@KMp3Music@@UAEXH@Z   10011f30 f   KMp3Music.obj
 0001:00010f40       ?Rewind@KMp3Music@@UAEXXZ  10011f40 f   KMp3Music.obj
 0001:00010f60       ?Mp3FileOpen@KMp3Music@@MAEHPAD@Z 10011f60 f   KMp3Music.obj
 0001:00010f70       ?Mp3FileRead@KMp3Music@@MAEKPAEK@Z 10011f70 f   KMp3Music.obj
 0001:00010f90       ?Mp3FileSeek@KMp3Music@@MAEKJ@Z 10011f90 f   KMp3Music.obj
 0001:00010fb0       ?Mp3Init@KMp3Music@@MAEHXZ 10011fb0 f   KMp3Music.obj
 0001:000110d0       ?Mp3Decode@KMp3Music@@MAEKPAEK@Z 100120d0 f   KMp3Music.obj
 0001:00011150       ?Mp3FillBuffer@KMp3Music@@MAEHXZ 10012150 f   KMp3Music.obj
 0001:000111d0       ??0KMp4Audio@@QAE@XZ       100121d0 f i KMp4Audio.obj
 0001:00011240       ??0KMp4Audio@@QAE@ABV0@@Z  10012240 f i KMp4Audio.obj
 0001:00011340       ??4KMp4Audio@@QAEAAV0@ABV0@@Z 10012340 f i KMp4Audio.obj
 0001:00011440       ??1KMp4Audio@@UAE@XZ       10012440 f i KMp4Audio.obj
 0001:000114b0       ??_GKMp4Audio@@UAEPAXI@Z   100124b0 f i KMp4Audio.obj
 0001:000114d0       ??_EKMp4Audio@@UAEPAXI@Z   100124d0 f i KMp4Audio.obj
 0001:00011530       ?Seek@KMp4Audio@@UAEXH@Z   10012530 f   KMp4Audio.obj
 0001:00011560       ?Rewind@KMp4Audio@@UAEXXZ  10012560 f   KMp4Audio.obj
 0001:00011580       ?Mp3FileOpen@KMp4Audio@@MAEHPAD@Z 10012580 f   KMp4Audio.obj
 0001:000115d0       ?Mp3FileRead@KMp4Audio@@MAEKPAEK@Z 100125d0 f   KMp4Audio.obj
 0001:000115f0       ?Mp3FileSeek@KMp4Audio@@MAEKJ@Z 100125f0 f   KMp4Audio.obj
 0001:00011610       ??0KVideo@@QAE@ABV0@@Z     10012610 f i KMp4Movie.obj
 0001:000116c0       ??4KVideo@@QAEAAV0@ABV0@@Z 100126c0 f i KMp4Movie.obj
 0001:00011770       ??0KMp4Video@@QAE@ABV0@@Z  10012770 f i KMp4Movie.obj
 0001:00011840       ??4KMp4Video@@QAEAAV0@ABV0@@Z 10012840 f i KMp4Movie.obj
 0001:00011910       ??0KMp4Movie@@QAE@XZ       10012910 f i KMp4Movie.obj
 0001:000119a0       ??0KMp4Movie@@QAE@ABV0@@Z  100129a0 f i KMp4Movie.obj
 0001:00011bd0       ??4KMp4Movie@@QAEAAV0@ABV0@@Z 10012bd0 f i KMp4Movie.obj
 0001:00011d90       ??1KMp4Movie@@QAE@XZ       10012d90 f i KMp4Movie.obj
 0001:00011e10       ?Open@KMp4Movie@@QAEHPAD@Z 10012e10 f   KMp4Movie.obj
 0001:00011e40       ?Close@KMp4Movie@@QAEXXZ   10012e40 f   KMp4Movie.obj
 0001:00011e60       ?Play@KMp4Movie@@QAEXHHH@Z 10012e60 f   KMp4Movie.obj
 0001:00011ea0       ?Stop@KMp4Movie@@QAEXXZ    10012ea0 f   KMp4Movie.obj
 0001:00011ec0       ?Seek@KMp4Movie@@QAEXH@Z   10012ec0 f   KMp4Movie.obj
 0001:00011ef0       ?Rewind@KMp4Movie@@QAEXXZ  10012ef0 f   KMp4Movie.obj
 0001:00011f10       ?WaitForEnd@KMp4Movie@@QAEXXZ 10012f10 f   KMp4Movie.obj
 0001:00011fa0       ??0KMp4Video@@QAE@XZ       10012fa0 f   KMp4Video.obj
 0001:00012000       ??1KMp4Video@@QAE@XZ       10013000 f   KMp4Video.obj
 0001:00012060       ?Open@KMp4Video@@UAEHPAD@Z 10013060 f   KMp4Video.obj
 0001:000120d0       ?Close@KMp4Video@@UAEXXZ   100130d0 f   KMp4Video.obj
 0001:00012100       ?Seek@KMp4Video@@UAEXH@Z   10013100 f   KMp4Video.obj
 0001:00012120       ?Rewind@KMp4Video@@UAEXXZ  10013120 f   KMp4Video.obj
 0001:00012130       ?NextFrame@KMp4Video@@MAEHXZ 10013130 f   KMp4Video.obj
 0001:000121c0       ?DrawFrame@KMp4Video@@IAEXXZ 100131c0 f   KMp4Video.obj
 0001:00012210       ?DivXInit@KMp4Video@@AAEHXZ 10013210 f   KMp4Video.obj
 0001:00012440       ?DivXDecode@KMp4Video@@AAEXH@Z 10013440 f   KMp4Video.obj
 0001:00012490       ?DivXExit@KMp4Video@@AAEXXZ 10013490 f   KMp4Video.obj
 0001:000124c0       ??0KMpgMusic@@QAE@XZ       100134c0 f i KMpgMusic.obj
 0001:00012530       ??0KMpgMusic@@QAE@ABV0@@Z  10013530 f i KMpgMusic.obj
 0001:00012620       ??4KMpgMusic@@QAEAAV0@ABV0@@Z 10013620 f i KMpgMusic.obj
 0001:00012710       ??1KMpgMusic@@UAE@XZ       10013710 f i KMpgMusic.obj
 0001:00012780       ??_GKMpgMusic@@UAEPAXI@Z   10013780 f i KMpgMusic.obj
 0001:000127a0       ??_EKMpgMusic@@UAEPAXI@Z   100137a0 f i KMpgMusic.obj
 0001:00012800       ?Open@KMpgMusic@@UAEHPAD@Z 10013800 f   KMpgMusic.obj
 0001:00012840       ?InitSoundFormat@KMpgMusic@@MAEXXZ 10013840 f   KMpgMusic.obj
 0001:00012860       ?ReadWaveData@KMpgMusic@@MAEKPAEK@Z 10013860 f   KMpgMusic.obj
 0001:00012880       ?Seek@KMpgMusic@@UAEXH@Z   10013880 f   KMpgMusic.obj
 0001:00012890       ?Rewind@KMpgMusic@@UAEXXZ  10013890 f   KMpgMusic.obj
 0001:000128b0       ?Mp3FileOpen@KMpgMusic@@MAEHPAD@Z 100138b0 f   KMpgMusic.obj
 0001:000128c0       ?Mp3FileRead@KMpgMusic@@MAEKPAEK@Z 100138c0 f   KMpgMusic.obj
 0001:000128e0       ?Mp3FileSeek@KMpgMusic@@MAEKJ@Z 100138e0 f   KMpgMusic.obj
 0001:00012900       ?Mp3Init@KMpgMusic@@AAEHXZ 10013900 f   KMpgMusic.obj
 0001:00012af0       ?Mp3Decode@KMpgMusic@@AAEKPAEK@Z 10013af0 f   KMpgMusic.obj
 0001:00012b80       ?Mp3FillBuffer@KMpgMusic@@AAEHXZ 10013b80 f   KMpgMusic.obj
 0001:00012c00       ?GetMsgBuf@KMsgNode@@QAEPAXXZ 10013c00 f i KMsgNode.obj
 0001:00012c10       ?GetMsgLen@KMsgNode@@QAEKXZ 10013c10 f i KMsgNode.obj
 0001:00012c20       ?SetPtr@KMsgNode@@QAEXPAX@Z 10013c20 f i KMsgNode.obj
 0001:00012c30       ?GetPtr@KMsgNode@@QAEPAXXZ 10013c30 f i KMsgNode.obj
 0001:00012c40       ??0KMsgNode@@QAE@ABV0@@Z   10013c40 f i KMsgNode.obj
 0001:00012c80       ??4KMsgNode@@QAEAAV0@ABV0@@Z 10013c80 f i KMsgNode.obj
 0001:00012cb0       ??_GKMsgNode@@UAEPAXI@Z    10013cb0 f i KMsgNode.obj
 0001:00012cd0       ??_EKMsgNode@@UAEPAXI@Z    10013cd0 f i KMsgNode.obj
 0001:00012d30       ??0KMsgNode@@QAE@XZ        10013d30 f   KMsgNode.obj
 0001:00012d50       ??1KMsgNode@@UAE@XZ        10013d50 f   KMsgNode.obj
 0001:00012db0       ??1KNode@@UAE@XZ           10013db0 f i KMsgNode.obj
 0001:00012dc0       ?SetMsg@KMsgNode@@QAEXPAXK@Z 10013dc0 f   KMsgNode.obj
 0001:00012e00       ??0KMusic@@QAE@XZ          10013e00 f   KMusic.obj
 0001:00012e30       ??1KMusic@@UAE@XZ          10013e30 f   KMusic.obj
 0001:00012e80       ?ThreadFunction@KMusic@@KAXPAX@Z 10013e80 f   KMusic.obj
 0001:00012ea0       ?Open@KMusic@@UAEHPAD@Z    10013ea0 f   KMusic.obj
 0001:00012eb0       ?Init@KMusic@@MAEHXZ       10013eb0 f   KMusic.obj
 0001:00012f10       ?Close@KMusic@@UAEXXZ      10013f10 f   KMusic.obj
 0001:00012f50       ?InitSoundFormat@KMusic@@MAEXXZ 10013f50 f   KMusic.obj
 0001:00012f60       ?InitSoundBuffer@KMusic@@MAEHXZ 10013f60 f   KMusic.obj
 0001:00012ff0       ?FreeSoundBuffer@KMusic@@MAEXXZ 10013ff0 f   KMusic.obj
 0001:00013020       ?InitEventHandle@KMusic@@MAEHXZ 10014020 f   KMusic.obj
 0001:00013070       ?FreeEventHandle@KMusic@@MAEXXZ 10014070 f   KMusic.obj
 0001:000130a0       ?InitSoundNotify@KMusic@@MAEHXZ 100140a0 f   KMusic.obj
 0001:00013120       ?FreeSoundNotify@KMusic@@MAEXXZ 10014120 f   KMusic.obj
 0001:00013150       ?HandleNotify@KMusic@@UAEHXZ 10014150 f   KMusic.obj
 0001:00013190       ?FillBufferWithSound@KMusic@@MAEHK@Z 10014190 f   KMusic.obj
 0001:00013270       ?FillBufferWithSilence@KMusic@@MAEHXZ 10014270 f   KMusic.obj
 0001:000132f0       ?ReadWaveData@KMusic@@MAEKPAEK@Z 100142f0 f   KMusic.obj
 0001:00013300       ?Play@KMusic@@UAEXH@Z      10014300 f   KMusic.obj
 0001:00013330       ?Stop@KMusic@@UAEXXZ       10014330 f   KMusic.obj
 0001:00013340       ?SetVolume@KMusic@@UAEXJ@Z 10014340 f   KMusic.obj
 0001:00013360       ?Rewind@KMusic@@UAEXXZ     10014360 f   KMusic.obj
 0001:00013370       ??0KMutex@@QAE@XZ          10014370 f   KMutex.obj
 0001:00013380       ??1KMutex@@QAE@XZ          10014380 f   KMutex.obj
 0001:00013390       ?Lock@KMutex@@QAEXXZ       10014390 f i KMutex.obj
 0001:000133a0       ?Unlock@KMutex@@QAEXXZ     100143a0 f i KMutex.obj
 0001:000133b0       ?GetRecvStatus@KNetClient@@QAEHXZ 100143b0 f i KNetClient.obj
 0001:000133c0       ?GetPing@KNetClient@@QAEHXZ 100143c0 f i KNetClient.obj
 0001:000133d0       ?GetCommand@KNetClient@@QAEPAUCOMMAND@@XZ 100143d0 f i KNetClient.obj
 0001:000133e0       ??0KNetClient@@QAE@ABV0@@Z 100143e0 f i KNetClient.obj
 0001:00013560       ??4KNetClient@@QAEAAV0@ABV0@@Z 10014560 f i KNetClient.obj
 0001:000136f0       ??_GKNetClient@@UAEPAXI@Z  100146f0 f i KNetClient.obj
 0001:00013710       ??_EKNetClient@@UAEPAXI@Z  10014710 f i KNetClient.obj
 0001:00013770       ??0KNetClient@@QAE@XZ      10014770 f   KNetClient.obj
 0001:00013870       ??1KNetClient@@UAE@XZ      10014870 f   KNetClient.obj
 0001:000138a0       ?Open@KNetClient@@UAE_NXZ  100148a0 f   KNetClient.obj
 0001:000138e0       ?Close@KNetClient@@UAEXXZ  100148e0 f   KNetClient.obj
 0001:00013910       ?FillServerAddr@KNetClient@@AAE_NPAD@Z 10014910 f   KNetClient.obj
 0001:00013a40       ?GetPortNumFromName@KNetClient@@AAEFPAD@Z 10014a40 f   KNetClient.obj
 0001:00013a60       ?Connect@KNetClient@@UAE_NPAD@Z 10014a60 f   KNetClient.obj
 0001:00013b50       ?SendMsg@KNetClient@@UAEHPAXJ@Z 10014b50 f   KNetClient.obj
 0001:00013c40       ?RecieveData@KNetClient@@QAEHPAEK@Z 10014c40 f   KNetClient.obj
 0001:00013cc0       ?SendPackage@KNetClient@@QAEHXZ 10014cc0 f   KNetClient.obj
 0001:00013d20       ?FindStringInMem@KNetClient@@AAEPADPADK0@Z 10014d20 f   KNetClient.obj
 0001:00013d90       ?SortProtocol@KNetClient@@AAEXXZ 10014d90 f   KNetClient.obj
 0001:00013f20       ?DeCompress@KNetClient@@AAEHPAURECV_DATA@@@Z 10014f20 f   KNetClient.obj
 0001:00013fe0       ?DataProcess@KNetClient@@AAEHXZ 10014fe0 f   KNetClient.obj
 0001:00014130       ?RecvMsg@KNetClient@@UAEHXZ 10015130 f   KNetClient.obj
 0001:000141b0       ?MessagePreProcess@KNetClient@@UAEHXZ 100151b0 f   KNetClient.obj
 0001:000142b0       ?SendPing@KNetClient@@QAEHXZ 100152b0 f   KNetClient.obj
 0001:000142e0       ?Decipher@KNetClient@@AAEXXZ 100152e0 f   KNetClient.obj
 0001:000143a0       ?GetHostName@KNetClient@@UAEPADXZ 100153a0 f   KNetClient.obj
 0001:000143b0       ?GetPortName@KNetClient@@UAEPADXZ 100153b0 f   KNetClient.obj
 0001:000143c0       ?ClearRecvFlag@KNetClient@@QAEXXZ 100153c0 f   KNetClient.obj
 0001:000143f0       ?DisConnect@KNetClient@@UAEXXZ 100153f0 f   KNetClient.obj
 0001:00014410       ?GetClientNum@KNetServer@@QAEHXZ 10015410 f i KNetServer.obj
 0001:00014420       ??0KNetServer@@QAE@ABV0@@Z 10015420 f i KNetServer.obj
 0001:000144b0       ??4KNetServer@@QAEAAV0@ABV0@@Z 100154b0 f i KNetServer.obj
 0001:00014560       ??_GKNetServer@@UAEPAXI@Z  10015560 f i KNetServer.obj
 0001:00014580       ??_EKNetServer@@UAEPAXI@Z  10015580 f i KNetServer.obj
 0001:00014640       ?GetPortNumFromName@KNetServer@@AAEFPAD@Z 10015640 f   KNetServer.obj
 0001:00014660       ??0KNetServer@@QAE@XZ      10015660 f   KNetServer.obj
 0001:00014690       ??1KNetServer@@UAE@XZ      10015690 f   KNetServer.obj
 0001:000146b0       ?Create@KNetServer@@UAEHPAD@Z 100156b0 f   KNetServer.obj
 0001:00014800       ?CheckConnect@KNetServer@@UAEXXZ 10015800 f   KNetServer.obj
 0001:000148d0       ?Encipher@KNetServer@@AAEXH@Z 100158d0 f   KNetServer.obj
 0001:00014940       ?MakeNewCipher@KNetServer@@QAEXH@Z 10015940 f   KNetServer.obj
 0001:000149a0       ?RecieveData@KNetServer@@UAEHHPAEK@Z 100159a0 f   KNetServer.obj
 0001:00014ae0       ?SendMessageA@KNetServer@@UAEHH@Z 10015ae0 f   KNetServer.obj
 0001:00014dd0       ?SendDest@KNetServer@@UAEHH@Z 10015dd0 f   KNetServer.obj
 0001:000150b0       ?RecieveMessage@KNetServer@@UAEHHK@Z 100160b0 f   KNetServer.obj
 0001:000151a0       ?MessagePreProcess@KNetServer@@UAEHH@Z 100161a0 f   KNetServer.obj
 0001:00015370       ?SetCountNum@KNetServer@@QAEXHH@Z 10016370 f   KNetServer.obj
 0001:000153b0       ?ClearRecvInfo@KNetServer@@QAEXH@Z 100163b0 f   KNetServer.obj
 0001:000153e0       ?DelOneClient@KNetServer@@QAEXH@Z 100163e0 f   KNetServer.obj
 0001:00015420       ?CopyDataToTemp@KNetServer@@QAEXXZ 10016420 f   KNetServer.obj
 0001:000154a0       ?CopyTempToDest@KNetServer@@QAEXXZ 100164a0 f   KNetServer.obj
 0001:00015500       ?RecvDataToTemp@KNetServer@@QAEXXZ 10016500 f   KNetServer.obj
 0001:000155f0       ?RecvTempToDest@KNetServer@@QAEXXZ 100165f0 f   KNetServer.obj
 0001:00015660       ?Close@KNetServer@@UAEXXZ  10016660 f   KNetServer.obj
 0001:00015690       ??0KOctreeNode@@QAE@ABV0@@Z 10016690 f i KOctree.obj
 0001:000156d0       ??4KOctreeNode@@QAEAAV0@ABV0@@Z 100166d0 f i KOctree.obj
 0001:00015710       ??_GKOctreeNode@@UAEPAXI@Z 10016710 f i KOctree.obj
 0001:00015730       ??_EKOctreeNode@@UAEPAXI@Z 10016730 f i KOctree.obj
 0001:00015790       ??0KOctree@@QAE@ABV0@@Z    10016790 f i KOctree.obj
 0001:00015800       ??4KOctree@@QAEAAV0@ABV0@@Z 10016800 f i KOctree.obj
 0001:00015870       ??_GKOctree@@UAEPAXI@Z     10016870 f i KOctree.obj
 0001:00015890       ??_EKOctree@@UAEPAXI@Z     10016890 f i KOctree.obj
 0001:000158f0       ??0KOctree@@QAE@XZ         100168f0 f   KOctree.obj
 0001:00015920       ??1KOctree@@UAE@XZ         10016920 f   KOctree.obj
 0001:00015990       ?Insert@KOctree@@QAEXEEE@Z 10016990 f   KOctree.obj
 0001:000159c0       ?ReduceNode@KOctree@@QAEXXZ 100169c0 f   KOctree.obj
 0001:00015a00       ?GetMinSumNode@KOctree@@QAEXPAVKOctreeNode@@@Z 10016a00 f   KOctree.obj
 0001:00015a60       ?InitPalette@KOctree@@QAEXXZ 10016a60 f   KOctree.obj
 0001:00015a90       ?MakePalette@KOctree@@QAEXPAVKOctreeNode@@@Z 10016a90 f   KOctree.obj
 0001:00015b20       ?QueryIndex@KOctree@@QAEHEEE@Z 10016b20 f   KOctree.obj
 0001:00015b40       ??0KOctreeNode@@QAE@XZ     10016b40 f   KOctreeNode.obj
 0001:00015b70       ??1KOctreeNode@@UAE@XZ     10016b70 f   KOctreeNode.obj
 0001:00015b80       ?Free@KOctreeNode@@QAEXXZ  10016b80 f   KOctreeNode.obj
 0001:00015bb0       ?Insert@KOctreeNode@@QAEHEEEHH@Z 10016bb0 f   KOctreeNode.obj
 0001:00015c90       ?QueryIndex@KOctreeNode@@QAEHEEEH@Z 10016c90 f   KOctreeNode.obj
 0001:00015d10       ?Merge@KOctreeNode@@QAEHXZ 10016d10 f   KOctreeNode.obj
 0001:00015d80       ?IsLeaf@KOctreeNode@@QAEHXZ 10016d80 f   KOctreeNode.obj
 0001:00015da0       ?IsFather@KOctreeNode@@QAEHXZ 10016da0 f   KOctreeNode.obj
 0001:00015de0       ?RefenceSum@KOctreeNode@@QAEHXZ 10016de0 f   KOctreeNode.obj
 0001:00015e00       ??0KPakData@@QAE@XZ        10016e00 f   KPakData.obj
 0001:00015e50       ??1KPakData@@QAE@XZ        10016e50 f   KPakData.obj
 0001:00015eb0       ?Open@KPakData@@QAEHPAD@Z  10016eb0 f   KPakData.obj
 0001:00015f70       ?Read@KPakData@@QAEKPAXK@Z 10016f70 f   KPakData.obj
 0001:00015f90       ?Seek@KPakData@@QAEKJK@Z   10016f90 f   KPakData.obj
 0001:00015fb0       ?Tell@KPakData@@QAEKXZ     10016fb0 f   KPakData.obj
 0001:00015fc0       ?Close@KPakData@@QAEXXZ    10016fc0 f   KPakData.obj
 0001:00015ff0       ?Search@KPakData@@QAEHPADPAK1@Z 10016ff0 f   KPakData.obj
 0001:000160a0       ?Decode@KPakData@@QAEHPAUTCodeInfo@@@Z 100170a0 f   KPakData.obj
 0001:000160b0       ?g_SetPakFileMode@@YAXH@Z  100170b0 f   KPakFile.obj
 0001:000160c0       ?releaseSPR@@YAXPAD0@Z     100170c0 f   KPakFile.obj
 0001:00016160       ?getSPR@@YAPADPBDHPAPAD_N@Z 10017160 f   KPakFile.obj
 0001:00016230       ?create_image@@YAKPBDHH@Z  10017230 f   KPakFile.obj
 0001:00016250       ?get_image@@YAPAXPBD@Z     10017250 f   KPakFile.obj
 0001:00016270       ??0KPakFile@@QAE@XZ        10017270 f   KPakFile.obj
 0001:00016280       ??1KPakFile@@QAE@XZ        10017280 f   KPakFile.obj
 0001:000162d0       ?Open@KPakFile@@QAEHPAD@Z  100172d0 f   KPakFile.obj
 0001:000163c0       ?Read@KPakFile@@QAEKPAXK@Z 100173c0 f   KPakFile.obj
 0001:000164c0       ?Seek@KPakFile@@QAEKJK@Z   100174c0 f   KPakFile.obj
 0001:00016520       ?Tell@KPakFile@@QAEKXZ     10017520 f   KPakFile.obj
 0001:00016530       ?Size@KPakFile@@QAEKXZ     10017530 f   KPakFile.obj
 0001:00016540       ?Close@KPakFile@@QAEXXZ    10017540 f   KPakFile.obj
 0001:00016550       ?Save@KPakFile@@QAEHPAD@Z  10017550 f   KPakFile.obj
 0001:00016560       ??0KPakList@@QAE@XZ        10017560 f   KPakList.obj
 0001:000165f0       ??1KPakList@@QAE@XZ        100175f0 f   KPakList.obj
 0001:000166d0       ?create_image@KPakList@@QAEKPBDHH@Z 100176d0 f   KPakList.obj
 0001:00016750       ?get_image@KPakList@@QAEPAXPBD@Z 10017750 f   KPakList.obj
 0001:000168e0       ?Open@KPakList@@QAEHPAD@Z  100178e0 f   KPakList.obj
 0001:00016b40       ?Close@KPakList@@QAEXXZ    10017b40 f   KPakList.obj
 0001:00016b90       ?Read@KPakList@@QAEKPAXK@Z 10017b90 f   KPakList.obj
 0001:00016ba0       ?Seek@KPakList@@QAEKJK@Z   10017ba0 f   KPakList.obj
 0001:00016bb0       ?Tell@KPakList@@QAEKXZ     10017bb0 f   KPakList.obj
 0001:00016bc0       ?Decode@KPakList@@QAEHPAUTCodeInfo@@@Z 10017bc0 f   KPakList.obj
 0001:00016bd0       ?Search@KPakList@@QAEJPADPAK1@Z 10017bd0 f   KPakList.obj
 0001:00016cc0       ??4KPakTool@@QAEAAV0@ABV0@@Z 10017cc0 f i KPakTool.obj
 0001:00016ce0       ??0KPakTool@@QAE@XZ        10017ce0 f   KPakTool.obj
 0001:00016cf0       ??1KPakTool@@QAE@XZ        10017cf0 f   KPakTool.obj
 0001:00016d00       ?Pack@KPakTool@@QAEHPAD0H@Z 10017d00 f   KPakTool.obj
 0001:00016f40       ?UnPack@KPakTool@@QAEHPAD0@Z 10017f40 f   KPakTool.obj
 0001:00017150       ?g_SetColorStyle@@YAXEEE@Z 10018150 f   KPalette.obj
 0001:00017170       ?g_Pal24ToPal16@@YAXPAUKPAL24@@PAGH@Z 10018170 f   KPalette.obj
 0001:000171c0       ?g_Pal32ToPal16@@YAXPAUKPAL32@@PAGH@Z 100181c0 f   KPalette.obj
 0001:00017210       ?g_Pal24ToPal16Style@@YAXPAUKPAL24@@PAGH@Z 10018210 f   KPalette.obj
 0001:000172c0       ?g_Pal32ToPal16Style@@YAXPAUKPAL32@@PAGH@Z 100182c0 f   KPalette.obj
 0001:00017370       ?g_Pal24ToPal16Gray@@YAXPAUKPAL24@@PAGH@Z 10018370 f   KPalette.obj
 0001:000173e0       ?g_Pal32ToPal16Gray@@YAXPAUKPAL32@@PAGH@Z 100183e0 f   KPalette.obj
 0001:00017450       ?g_Pal24ToPal16Lum@@YAXPAUKPAL24@@PAGH@Z 10018450 f   KPalette.obj
 0001:000174d0       ?g_Pal32ToPal16Lum@@YAXPAUKPAL32@@PAGH@Z 100184d0 f   KPalette.obj
 0001:00017550       ?g_Pal24ToPal32@@YAXPAUKPAL24@@PAUKPAL32@@H@Z 10018550 f   KPalette.obj
 0001:00017590       ?g_Pal32ToPal24@@YAXPAUKPAL32@@PAUKPAL24@@H@Z 10018590 f   KPalette.obj
 0001:000175d0       ??4KPcxFile@@QAEAAV0@ABV0@@Z 100185d0 f i KPcxFile.obj
 0001:000175f0       ?Load@KPcxFile@@QAEHPADPAVKBitmap@@@Z 100185f0 f   KPcxFile.obj
 0001:000177c0       ?Save@KPcxFile@@QAEHPADPAVKBitmap@@@Z 100187c0 f   KPcxFile.obj
 0001:000177d0       ?Decode@KPcxFile@@AAEXPAX0@Z 100187d0 f   KPcxFile.obj
 0001:00017850       ?Encode@KPcxFile@@AAEXPAX0@Z 10018850 f   KPcxFile.obj
 0001:00017860       ?GetVertexNumber@KPolygon@@QAEHXZ 10018860 f i KPolygon.obj
 0001:00017870       ?GetPolygonPtr@KPolygon@@QAEPAUTPolygon@@XZ 10018870 f i KPolygon.obj
 0001:00017880       ??4KPolygon@@QAEAAV0@ABV0@@Z 10018880 f i KPolygon.obj
 0001:000178a0       ??0KPolygon@@QAE@XZ        100188a0 f   KPolygon.obj
 0001:000178c0       ?IsPointInPolygon@KPolygon@@QAEHUtagPOINT@@@Z 100188c0 f   KPolygon.obj
 0001:00017980       ?IsPointInPolygon@KPolygon@@QAEHHH@Z 10018980 f   KPolygon.obj
 0001:00017a40       ?GetNearVertex@KPolygon@@QAEHUtagPOINT@@@Z 10018a40 f   KPolygon.obj
 0001:00017ab0       ?GetIndexVertex@KPolygon@@QAEHHPAUtagPOINT@@@Z 10018ab0 f   KPolygon.obj
 0001:00017ae0       ?RemoveIndexVertex@KPolygon@@QAEHH@Z 10018ae0 f   KPolygon.obj
 0001:00017b20       ?AddPointToVertex@KPolygon@@QAEHUtagPOINT@@@Z 10018b20 f   KPolygon.obj
 0001:00017c60       ?AddPointToVertex@KPolygon@@QAEHHH@Z 10018c60 f   KPolygon.obj
 0001:00017da0       ?LoopVertex@KPolygon@@QAEXH@Z 10018da0 f   KPolygon.obj
 0001:00017e00       ?Clear@KPolygon@@QAEXXZ    10018e00 f   KPolygon.obj
 0001:00017e20       ?GetCenterPos@KPolygon@@QAEXPAUtagPOINT@@@Z 10018e20 f   KPolygon.obj
 0001:00017e70       ?ShiftVertex@KPolygon@@QAEHHH@Z 10018e70 f   KPolygon.obj
 0001:00018040       ?GetLeftVertex@KPolygon@@QAEHXZ 10019040 f   KPolygon.obj
 0001:00018070       ?GetRightVertex@KPolygon@@QAEHXZ 10019070 f   KPolygon.obj
 0001:000180a0       ?g_ColliSion@@YAHVKPolygon@@0@Z 100190a0 f   KPolyRelation.obj
 0001:000180f0       ?g_SpaceRelation@@YAHVKPolygon@@0@Z 100190f0 f   KPolyRelation.obj
 0001:000182b0       ?IntersectionX2Y@@YAHUtagPOINT@@0HPAH@Z 100192b0 f   KPolyRelation.obj
 0001:00018300       ?g_RandomSeed@@YAXI@Z      10019300 f   KRandom.obj
 0001:00018310       ?g_Random@@YAII@Z          10019310 f   KRandom.obj
 0001:00018350       ?g_GetRandomSeed@@YAIXZ    10019350 f   KRandom.obj
 0001:00018360       ?SignalEvent@KSafeList@@QAEXXZ 10019360 f i KSafeList.obj
 0001:00018370       ?WaitEvent@KSafeList@@QAEXXZ 10019370 f i KSafeList.obj
 0001:00018380       ?TimedWaitEvent@KSafeList@@QAEXJ@Z 10019380 f i KSafeList.obj
 0001:00018390       ?Lock@KSafeList@@QAEXXZ    10019390 f i KSafeList.obj
 0001:000183a0       ?Unlock@KSafeList@@QAEXXZ  100193a0 f i KSafeList.obj
 0001:000183b0       ??0KSafeList@@QAE@XZ       100193b0 f i KSafeList.obj
 0001:00018420       ??0KSafeList@@QAE@ABV0@@Z  10019420 f i KSafeList.obj
 0001:00018470       ??4KSafeList@@QAEAAV0@ABV0@@Z 10019470 f i KSafeList.obj
 0001:000184b0       ??1KSafeList@@QAE@XZ       100194b0 f i KSafeList.obj
 0001:00018510       ??4KScanFile@@QAEAAV0@ABV0@@Z 10019510 f i KScanDir.obj
 0001:00018540       ??0KScanFile@@QAE@XZ       10019540 f   KScanDir.obj
 0001:00018560       ?DiscardFileExt@KScanFile@@QAEXPAD@Z 10019560 f   KScanDir.obj
 0001:00018580       ?RunSearch@KScanFile@@QAEHPAD00@Z 10019580 f   KScanDir.obj
 0001:00018600       ?SearchDirectory@KScanFile@@AAEXXZ 10019600 f   KScanDir.obj
 0001:000186e0       ?CheckFileExt@KScanFile@@AAEHPAD@Z 100196e0 f   KScanDir.obj
 0001:00018710       ?OutputFileName@KScanFile@@AAEXPAD@Z 10019710 f   KScanDir.obj
 0001:000187e0       ??0KScript@@QAE@XZ         100197e0 f   KScript.obj
 0001:000187f0       ??1KScript@@UAE@XZ         100197f0 f   KScript.obj
 0001:00018800       ?Init@KScript@@UAEHXZ      10019800 f   KScript.obj
 0001:00018810       ?Exit@KScript@@UAEXXZ      10019810 f   KScript.obj
 0001:00018820       ?Load@KScript@@UAEHPAD@Z   10019820 f   KScript.obj
 0001:00018830       ?Compile@KScript@@UAEHPAD@Z 10019830 f   KScript.obj
 0001:00018840       ?Execute@KScript@@UAEHXZ   10019840 f   KScript.obj
 0001:00018850       ?CallFunction@KScript@@UAAHPADH0ZZ 10019850 f   KScript.obj
 0001:00018860       ?RegisterFunction@KScript@@UAEHPADPAX@Z 10019860 f   KScript.obj
 0001:00018870       ??0KScriptCache@@QAE@XZ    10019870 f i KScriptCache.obj
 0001:00018890       ??0KScriptCache@@QAE@ABV0@@Z 10019890 f i KScriptCache.obj
 0001:000188d0       ??4KScriptCache@@QAEAAV0@ABV0@@Z 100198d0 f i KScriptCache.obj
 0001:00018900       ??1KScriptCache@@UAE@XZ    10019900 f i KScriptCache.obj
 0001:00018910       ??_GKScriptCache@@UAEPAXI@Z 10019910 f i KScriptCache.obj
 0001:00018930       ??_EKScriptCache@@UAEPAXI@Z 10019930 f i KScriptCache.obj
 0001:00018990       ?LoadNode@KScriptCache@@UAEHPAVKCacheNode@@@Z 10019990 f   KScriptCache.obj
 0001:00018a20       ?FreeNode@KScriptCache@@UAEXPAVKCacheNode@@@Z 10019a20 f   KScriptCache.obj
 0001:00018a50       ?SeekBegin@KStepLuaScript@@QAEXXZ 10019a50 f i KScriptList.obj
 0001:00018a60       ?SeekToExeBegin@KStepLuaScript@@QAEXXZ 10019a60 f i KScriptList.obj
 0001:00018a70       ?RunMain@KStepLuaScript@@QAEXXZ 10019a70 f i KScriptList.obj
 0001:00018a80       ?RunFunc@KStepLuaScript@@QAEXXZ 10019a80 f i KScriptList.obj
 0001:00018a90       ?RunIdle@KStepLuaScript@@QAEXXZ 10019a90 f i KScriptList.obj
 0001:00018aa0       ?RunResume@KStepLuaScript@@QAEXXZ 10019aa0 f i KScriptList.obj
 0001:00018ab0       ?RunWaitMsg@KStepLuaScript@@QAEXXZ 10019ab0 f i KScriptList.obj
 0001:00018ac0       ?IsRunMain@KStepLuaScript@@QAEHXZ 10019ac0 f i KScriptList.obj
 0001:00018ad0       ?IsRunFunc@KStepLuaScript@@QAEHXZ 10019ad0 f i KScriptList.obj
 0001:00018ae0       ?IsRunIdle@KStepLuaScript@@QAEHXZ 10019ae0 f i KScriptList.obj
 0001:00018af0       ?IsRunResume@KStepLuaScript@@QAEHXZ 10019af0 f i KScriptList.obj
 0001:00018b00       ?IsRunWaitMsg@KStepLuaScript@@QAEHXZ 10019b00 f i KScriptList.obj
 0001:00018b10       ?GetWaitingMsg@KStepLuaScript@@QAEPADXZ 10019b10 f i KScriptList.obj
 0001:00018b20       ?GetStatus@KStepLuaScript@@QAEHXZ 10019b20 f i KScriptList.obj
 0001:00018b30       ??0KStepLuaScript@@QAE@ABV0@@Z 10019b30 f i KScriptList.obj
 0001:00018c00       ??4KStepLuaScript@@QAEAAV0@ABV0@@Z 10019c00 f i KScriptList.obj
 0001:00018ce0       ??_GKStepLuaScript@@UAEPAXI@Z 10019ce0 f i KScriptList.obj
 0001:00018d00       ??_EKStepLuaScript@@UAEPAXI@Z 10019d00 f i KScriptList.obj
 0001:00018d60       ??1KScriptNode@@UAE@XZ     10019d60 f i KScriptList.obj
 0001:00018db0       ??0KScriptNode@@QAE@XZ     10019db0 f i KScriptList.obj
 0001:00018dd0       ??0KScriptNode@@QAE@ABV0@@Z 10019dd0 f i KScriptList.obj
 0001:00018e00       ??4KScriptNode@@QAEAAV0@ABV0@@Z 10019e00 f i KScriptList.obj
 0001:00018e30       ??_GKScriptNode@@UAEPAXI@Z 10019e30 f i KScriptList.obj
 0001:00018e50       ??_EKScriptNode@@UAEPAXI@Z 10019e50 f i KScriptList.obj
 0001:00018eb0       ??0KScriptList@@QAE@XZ     10019eb0 f i KScriptList.obj
 0001:00018ee0       ??0KScriptList@@QAE@ABV0@@Z 10019ee0 f i KScriptList.obj
 0001:00018f10       ??4KScriptList@@QAEAAV0@ABV0@@Z 10019f10 f i KScriptList.obj
 0001:00018f40       ??1KScriptList@@QAE@XZ     10019f40 f i KScriptList.obj
 0001:00018f50       ?GetScript@KScriptList@@QAEPAVKLuaScript@@PAUlua_State@@@Z 10019f50 f   KScriptList.obj
 0001:00018f90       ?Activate@KScriptList@@QAEXXZ 10019f90 f   KScriptList.obj
 0001:00019050       ?SendMessageA@KScriptList@@QAEXPAD0@Z 1001a050 f   KScriptList.obj
 0001:000190b0       ??0KScriptSet@@QAE@XZ      1001a0b0 f   KScriptSet.obj
 0001:000190d0       ??0KScriptSet@@QAE@H@Z     1001a0d0 f   KScriptSet.obj
 0001:00019120       ??1KScriptSet@@QAE@XZ      1001a120 f   KScriptSet.obj
 0001:00019150       ?GetScript@KScriptSet@@QAEPAVKScript@@PADHH@Z 1001a150 f   KScriptSet.obj
 0001:000192b0       ?GetScript@KScriptSet@@QAEPAVKScript@@KHH@Z 1001a2b0 f   KScriptSet.obj
 0001:00019410       ?UpdateRecent@KScriptSet@@QAEXHPAUTScript@@@Z 1001a410 f   KScriptSet.obj
 0001:000194c0       ?SearchScript@KScriptSet@@QAEPAUTScript@@PADPAH@Z 1001a4c0 f   KScriptSet.obj
 0001:000194f0       ?SearchScript@KScriptSet@@QAEPAUTScript@@KPAH@Z 1001a4f0 f   KScriptSet.obj
 0001:00019520       ?CreateScript@KScriptSet@@UAEPAVKScript@@PADH@Z 1001a520 f   KScriptSet.obj
 0001:00019530       ?CreateScript@KScriptSet@@UAEPAVKScript@@KH@Z 1001a530 f   KScriptSet.obj
 0001:00019540       ?DeleteScript@KScriptSet@@QAEHPAD@Z 1001a540 f   KScriptSet.obj
 0001:00019630       ?DeleteScript@KScriptSet@@QAEHK@Z 1001a630 f   KScriptSet.obj
 0001:00019720       ?DeleteScript@KScriptSet@@QAEHPAUTScript@@@Z 1001a720 f   KScriptSet.obj
 0001:00019750       ?InsertScript@KScriptSet@@QAEPAUTScript@@PAD@Z 1001a750 f   KScriptSet.obj
 0001:000197b0       ?InsertScript@KScriptSet@@QAEPAUTScript@@K@Z 1001a7b0 f   KScriptSet.obj
 0001:00019810       ?GetInitStackSize@KScriptSet@@UAEHPAD@Z 1001a810 f   KScriptSet.obj
 0001:00019820       ?GetInitStackSize@KScriptSet@@UAEHK@Z 1001a820 f   KScriptSet.obj
 0001:00019830       ?ListScriptsKey@KScriptSet@@QAEKXZ 1001a830 f   KScriptSet.obj
 0001:00019840       ?ListRecent@KScriptSet@@QAEKH@Z 1001a840 f   KScriptSet.obj
 0001:00019870       ?Run@KScriptSet@@UAEHPAD@Z 1001a870 f   KScriptSet.obj
 0001:00019880       ?Run@KScriptSet@@UAEHK@Z   1001a880 f   KScriptSet.obj
 0001:00019890       ?RunFunction@KScriptSet@@UAAHPAD00ZZ 1001a890 f   KScriptSet.obj
 0001:000198a0       ?RunFunction@KScriptSet@@UAAHKPAD0ZZ 1001a8a0 f   KScriptSet.obj
 0001:000198b0       ?BTSearch@@YAPAUTScript@@PAU1@0PADPAH@Z 1001a8b0 f   KScriptSet.obj
 0001:00019940       ?BTSearch@@YAPAUTScript@@PAU1@0KPAH@Z 1001a940 f   KScriptSet.obj
 0001:000199a0       ?BTInsert@@YAPAUTScript@@PAU1@PAD@Z 1001a9a0 f   KScriptSet.obj
 0001:00019a40       ?BTInsert@@YAPAUTScript@@PAU1@K@Z 1001aa40 f   KScriptSet.obj
 0001:00019a90       ?BTDelete@@YAPAUTScript@@PAU1@PAPAU1@H@Z 1001aa90 f   KScriptSet.obj
 0001:00019d20       ?BTFindLess@@YAPAUTScript@@PAU1@@Z 1001ad20 f   KScriptSet.obj
 0001:00019d40       ?BTPreorder@@YAKPAUTScript@@@Z 1001ad40 f   KScriptSet.obj
 0001:00019d70       ??0TBinTreeNode@@AAE@XZ    1001ad70 f i KSortBinTree.obj
 0001:00019d90       ??0TBinTreeNode@@QAE@ABV0@@Z 1001ad90 f i KSortBinTree.obj
 0001:00019dc0       ??4TBinTreeNode@@QAEAAV0@ABV0@@Z 1001adc0 f i KSortBinTree.obj
 0001:00019de0       ?GetCount@KSortBinTree@@QAEKXZ 1001ade0 f i KSortBinTree.obj
 0001:00019df0       ?GetRoot@KSortBinTree@@QAEPAVTBinTreeNode@@XZ 1001adf0 f i KSortBinTree.obj
 0001:00019e00       ??4KSortBinTree@@QAEAAV0@ABV0@@Z 1001ae00 f i KSortBinTree.obj
 0001:00019e20       ??0KSortBinTree@@QAE@XZ    1001ae20 f   KSortBinTree.obj
 0001:00019e30       ?Search@KSortBinTree@@AAEPAVTBinTreeNode@@PAV2@00PAH@Z 1001ae30 f   KSortBinTree.obj
 0001:00019ea0       ?AddNode@KSortBinTree@@AAEPAVTBinTreeNode@@PAV2@0@Z 1001aea0 f   KSortBinTree.obj
 0001:00019f00       ?RemoveNode@KSortBinTree@@AAEPAVTBinTreeNode@@PAV2@PAPAV2@@Z 1001af00 f   KSortBinTree.obj
 0001:0001a0c0       ?FindLess@KSortBinTree@@AAEPAVTBinTreeNode@@PAV2@@Z 1001b0c0 f   KSortBinTree.obj
 0001:0001a0e0       ?InOrder@KSortBinTree@@AAEKPAVTBinTreeNode@@@Z 1001b0e0 f   KSortBinTree.obj
 0001:0001a130       ?Insert@KSortBinTree@@QAEPAVTBinTreeNode@@PAV2@@Z 1001b130 f   KSortBinTree.obj
 0001:0001a1a0       ?RemoveKeyNode@KSortBinTree@@QAEHPAVTBinTreeNode@@@Z 1001b1a0 f   KSortBinTree.obj
 0001:0001a1f0       ?RemoveThisNode@KSortBinTree@@QAEHPAVTBinTreeNode@@@Z 1001b1f0 f   KSortBinTree.obj
 0001:0001a240       ?Search@KSortBinTree@@QAEPAVTBinTreeNode@@PAV2@PAH@Z 1001b240 f   KSortBinTree.obj
 0001:0001a260       ??4KSortList@@QAEAAV0@ABV0@@Z 1001b260 f i KSortList.obj
 0001:0001a280       ??0KSortList@@QAE@XZ       1001b280 f   KSortList.obj
 0001:0001a2d0       ??1KSortList@@QAE@XZ       1001b2d0 f   KSortList.obj
 0001:0001a320       ?Init@KSortList@@QAEHHH@Z  1001b320 f   KSortList.obj
 0001:0001a370       ?Free@KSortList@@QAEXXZ    1001b370 f   KSortList.obj
 0001:0001a390       ?Insert@KSortList@@QAEHKPAX@Z 1001b390 f   KSortList.obj
 0001:0001a450       ?Search@KSortList@@QAEHKPAX@Z 1001b450 f   KSortList.obj
 0001:0001a4b0       ??4KWavSound@@QAEAAV0@ABV0@@Z 1001b4b0 f i KSoundCache.obj
 0001:0001a4d0       ??0KSoundCache@@QAE@XZ     1001b4d0 f i KSoundCache.obj
 0001:0001a4f0       ??0KSoundCache@@QAE@ABV0@@Z 1001b4f0 f i KSoundCache.obj
 0001:0001a530       ??4KSoundCache@@QAEAAV0@ABV0@@Z 1001b530 f i KSoundCache.obj
 0001:0001a560       ??1KSoundCache@@UAE@XZ     1001b560 f i KSoundCache.obj
 0001:0001a570       ??_GKSoundCache@@UAEPAXI@Z 1001b570 f i KSoundCache.obj
 0001:0001a590       ??_EKSoundCache@@UAEPAXI@Z 1001b590 f i KSoundCache.obj
 0001:0001a5f0       ?LoadNode@KSoundCache@@UAEHPAVKCacheNode@@@Z 1001b5f0 f   KSoundCache.obj
 0001:0001a6c0       ?FreeNode@KSoundCache@@UAEXPAVKCacheNode@@@Z 1001b6c0 f   KSoundCache.obj
 0001:0001a6f0       ??0KSprite@@QAE@XZ         1001b6f0 f   KSprite.obj
 0001:0001a760       ?Load@KSprite@@QAEHPAD@Z   1001b760 f   KSprite.obj
 0001:0001a8e0       ?LoadFor3D@KSprite@@QAEHPAD@Z 1001b8e0 f   KSprite.obj
 0001:0001aa60       ?Free@KSprite@@QAEXXZ      1001ba60 f   KSprite.obj
 0001:0001aa90       ?Make4444Palette@KSprite@@QAEXXZ 1001ba90 f   KSprite.obj
 0001:0001ab00       ?MakePalette@KSprite@@QAEXXZ 1001bb00 f   KSprite.obj
 0001:0001ab30       ?Draw@KSprite@@QAEXHHH@Z   1001bb30 f   KSprite.obj
 0001:0001ab90       ?DrawCenter@KSprite@@QAEXHHH@Z 1001bb90 f   KSprite.obj
 0001:0001ac00       ?DrawMixColor@KSprite@@QAEXHHHHH@Z 1001bc00 f   KSprite.obj
 0001:0001ac60       ?DrawWithColor@KSprite@@QAEXHHHHH@Z 1001bc60 f   KSprite.obj
 0001:0001acc0       ?DrawAlpha@KSprite@@QAEXHHHH@Z 1001bcc0 f   KSprite.obj
 0001:0001ad20       ?DrawAlphaCenter@KSprite@@QAEXHHHH@Z 1001bd20 f   KSprite.obj
 0001:0001ad90       ?DrawTrans@KSprite@@QAEXHHH@Z 1001bd90 f   KSprite.obj
 0001:0001ada0       ?DrawBorder@KSprite@@QAEXHHHH@Z 1001bda0 f   KSprite.obj
 0001:0001ade0       ?NextFrame@KSprite@@QAEHH@Z 1001bde0 f   KSprite.obj
 0001:0001ae00       ?GetPixelAlpha@KSprite@@QAEHHHH@Z 1001be00 f   KSprite.obj
 0001:0001aec0       ?GetFrame@KSprite@@QAEPAXH@Z 1001bec0 f   KSprite.obj
 0001:0001aee0       ??0KSpriteCache@@QAE@XZ    1001bee0 f i KSpriteCache.obj
 0001:0001af00       ??0KSpriteCache@@QAE@ABV0@@Z 1001bf00 f i KSpriteCache.obj
 0001:0001af40       ??4KSpriteCache@@QAEAAV0@ABV0@@Z 1001bf40 f i KSpriteCache.obj
 0001:0001af70       ??1KSpriteCache@@UAE@XZ    1001bf70 f i KSpriteCache.obj
 0001:0001af80       ??_GKSpriteCache@@UAEPAXI@Z 1001bf80 f i KSpriteCache.obj
 0001:0001afa0       ??_EKSpriteCache@@UAEPAXI@Z 1001bfa0 f i KSpriteCache.obj
 0001:0001b000       ?LoadNode@KSpriteCache@@UAEHPAVKCacheNode@@@Z 1001c000 f   KSpriteCache.obj
 0001:0001b090       ?FreeNode@KSpriteCache@@UAEXPAVKCacheNode@@@Z 1001c090 f   KSpriteCache.obj
 0001:0001b0c0       ?GetSprite@KSpriteCodec@@QAEPAXXZ 1001c0c0 f i KSpriteCodec.obj
 0001:0001b0d0       ?GetLength@KSpriteCodec@@QAEJXZ 1001c0d0 f i KSpriteCodec.obj
 0001:0001b0e0       ??4KSpriteCodec@@QAEAAV0@ABV0@@Z 1001c0e0 f i KSpriteCodec.obj
 0001:0001b100       ??1KSpriteCodec@@QAE@XZ    1001c100 f i KSpriteCodec.obj
 0001:0001b110       ??0KSpriteCodec@@QAE@XZ    1001c110 f   KSpriteCodec.obj
 0001:0001b130       ?Convert@KSpriteCodec@@QAEHPAVKBitmap@@0@Z 1001c130 f   KSpriteCodec.obj
 0001:0001b1c0       ?ConvertRect@KSpriteCodec@@IAEXPAUtagRECT@@@Z 1001c1c0 f   KSpriteCodec.obj
 0001:0001b240       ?ConvertLine@KSpriteCodec@@IAEJHHHPAE@Z 1001c240 f   KSpriteCodec.obj
 0001:0001b300       ?GetAlphaCount@KSpriteCodec@@IAEEHHH@Z 1001c300 f   KSpriteCodec.obj
 0001:0001b360       ?GetMiniRect@KSpriteCodec@@IAEXPAUtagRECT@@@Z 1001c360 f   KSpriteCodec.obj
 0001:0001b4b0       ??0KSpriteMaker@@QAE@ABV0@@Z 1001c4b0 f i KSpriteMaker.obj
 0001:0001b570       ??4KSpriteMaker@@QAEAAV0@ABV0@@Z 1001c570 f i KSpriteMaker.obj
 0001:0001b650       ??0KSpriteMaker@@QAE@XZ    1001c650 f   KSpriteMaker.obj
 0001:0001b6c0       ??1KSpriteMaker@@QAE@XZ    1001c6c0 f   KSpriteMaker.obj
 0001:0001b720       ?Load@KSpriteMaker@@QAEHPAD@Z 1001c720 f   KSpriteMaker.obj
 0001:0001b940       ?Save@KSpriteMaker@@QAEHPAD@Z 1001c940 f   KSpriteMaker.obj
 0001:0001bad0       ?Free@KSpriteMaker@@QAEXXZ 1001cad0 f   KSpriteMaker.obj
 0001:0001bb50       ?Draw@KSpriteMaker@@QAEXHHH@Z 1001cb50 f   KSpriteMaker.obj
 0001:0001bbc0       ?AddFrame@KSpriteMaker@@QAEHPAVKBitmap@@H@Z 1001cbc0 f   KSpriteMaker.obj
 0001:0001bd80       ?AddAlphaFrame@KSpriteMaker@@QAEHPAVKBitmap@@0@Z 1001cd80 f   KSpriteMaker.obj
 0001:0001bf40       ?DelFrame@KSpriteMaker@@QAEHH@Z 1001cf40 f   KSpriteMaker.obj
 0001:0001bfc0       ?GetFrame@KSpriteMaker@@QAEPAVKSprNode@@H@Z 1001cfc0 f   KSpriteMaker.obj
 0001:0001bff0       ?MakeOffset@KSpriteMaker@@QAEXXZ 1001cff0 f   KSpriteMaker.obj
 0001:0001c050       ??0KStepLuaScript@@QAE@XZ  1001d050 f   KStepLuaScript.obj
 0001:0001c0f0       ??0KStepLuaScript@@QAE@H@Z 1001d0f0 f   KStepLuaScript.obj
 0001:0001c160       ??1KStepLuaScript@@UAE@XZ  1001d160 f   KStepLuaScript.obj
 0001:0001c1d0       ?GetNextLine@KStepLuaScript@@QAEHPAEPAD@Z 1001d1d0 f   KStepLuaScript.obj
 0001:0001c240       ?Load@KStepLuaScript@@UAEHPAD@Z 1001d240 f   KStepLuaScript.obj
 0001:0001c600       ??1KLubCmpl_Blocker@@QAE@XZ 1001d600 f i KStepLuaScript.obj
 0001:0001c620       ?ExeLine@KStepLuaScript@@QAEHPAD@Z 1001d620 f   KStepLuaScript.obj
 0001:0001c650       ?CheckLine@KStepLuaScript@@QAEHPAD@Z 1001d650 f   KStepLuaScript.obj
 0001:0001c660       ?GetExeBufferFromFile@KStepLuaScript@@QAEHPAD@Z 1001d660 f   KStepLuaScript.obj
 0001:0001c810       ?GetExeBuffer@KStepLuaScript@@QAEHPAXH@Z 1001d810 f   KStepLuaScript.obj
 0001:0001c8f0       ?Active@KStepLuaScript@@QAEHXZ 1001d8f0 f   KStepLuaScript.obj
 0001:0001ca80       ?PosUp@KStepLuaScript@@QAEXXZ 1001da80 f   KStepLuaScript.obj
 0001:0001cab0       ?GotoLabel@KStepLuaScript@@QAEXPAD@Z 1001dab0 f   KStepLuaScript.obj
 0001:0001cb20       ?AddMessage@KStepLuaScript@@QAEHPAUlua_State@@PAD1@Z 1001db20 f   KStepLuaScript.obj
 0001:0001cb90       ?SendMessageA@KStepLuaScript@@QAEHPAV1@PAD1@Z 1001db90 f   KStepLuaScript.obj
 0001:0001cbc0       ?g_StrLen@@YAHPBD@Z        1001dbc0 f   KStrBase.obj
 0001:0001cbe0       ?g_StrEnd@@YAPADPBD@Z      1001dbe0 f   KStrBase.obj
 0001:0001cc00       ?g_StrCpy@@YAXPADPBD@Z     1001dc00 f   KStrBase.obj
 0001:0001cc30       ?g_StrCpyLen@@YAXPADPBDH@Z 1001dc30 f   KStrBase.obj
 0001:0001cc80       ?g_StrCat@@YAXPADPBD@Z     1001dc80 f   KStrBase.obj
 0001:0001cca0       ?g_StrCatLen@@YAXPADPBDH@Z 1001dca0 f   KStrBase.obj
 0001:0001ccc0       ?g_StrCmp@@YAHPBD0@Z       1001dcc0 f   KStrBase.obj
 0001:0001cd00       ?g_StrCmpLen@@YAHPBD0H@Z   1001dd00 f   KStrBase.obj
 0001:0001cd40       ?g_StrUpper@@YAXPAD@Z      1001dd40 f   KStrBase.obj
 0001:0001cd60       ?g_StrLower@@YAXPAD@Z      1001dd60 f   KStrBase.obj
 0001:0001cd80       ?g_StrRep@@YAXPAD00@Z      1001dd80 f   KStrBase.obj
 0001:0001ce50       ?Find@KStrList@@QAEPAVKStrNode@@PAD@Z 1001de50 f   KStrList.obj
 0001:0001cea0       ??0KStrNode@@QAE@XZ        1001dea0 f   KStrNode.obj
 0001:0001cef0       ??0KITabFile@@QAE@XZ       1001def0 f i KTabFile.obj
 0001:0001cf00       ??1KITabFile@@UAE@XZ       1001df00 f i KTabFile.obj
 0001:0001cf10       ??0KITabFile@@QAE@ABV0@@Z  1001df10 f i KTabFile.obj
 0001:0001cf20       ??4KITabFile@@QAEAAV0@ABV0@@Z 1001df20 f i KTabFile.obj
 0001:0001cf30       ??_GKITabFile@@UAEPAXI@Z   1001df30 f i KTabFile.obj
 0001:0001cf50       ??_EKITabFile@@UAEPAXI@Z   1001df50 f i KTabFile.obj
 0001:0001cfb0       ?Save@KTabFile@@UAEHPAD@Z  1001dfb0 f i KTabFile.obj
 0001:0001cfc0       ?GetWidth@KTabFile@@UAEHXZ 1001dfc0 f i KTabFile.obj
 0001:0001cfd0       ?GetHeight@KTabFile@@UAEHXZ 1001dfd0 f i KTabFile.obj
 0001:0001cfe0       ??0KTabFile@@QAE@ABV0@@Z   1001dfe0 f i KTabFile.obj
 0001:0001d020       ??4KTabFile@@QAEAAV0@ABV0@@Z 1001e020 f i KTabFile.obj
 0001:0001d050       ??_GKTabFile@@UAEPAXI@Z    1001e050 f i KTabFile.obj
 0001:0001d070       ??_EKTabFile@@UAEPAXI@Z    1001e070 f i KTabFile.obj
 0001:0001d0d0       ??0KTabFile@@QAE@XZ        1001e0d0 f   KTabFile.obj
 0001:0001d140       ??1KTabFile@@UAE@XZ        1001e140 f   KTabFile.obj
 0001:0001d1a0       ?Load@KTabFile@@UAEHPAD@Z  1001e1a0 f   KTabFile.obj
 0001:0001d290       ?CreateTabOffset@KTabFile@@AAEXXZ 1001e290 f   KTabFile.obj
 0001:0001d390       ?Str2Col@KTabFile@@AAEHPAD@Z 1001e390 f   KTabFile.obj
 0001:0001d3f0       ?GetString@KTabFile@@UAEHHPAD00KH@Z 1001e3f0 f   KTabFile.obj
 0001:0001d460       ?GetString@KTabFile@@UAEHPAD000K@Z 1001e460 f   KTabFile.obj
 0001:0001d4c0       ?GetString@KTabFile@@UAEHHHPAD0K@Z 1001e4c0 f   KTabFile.obj
 0001:0001d510       ?GetInteger@KTabFile@@UAEHHPADHPAHH@Z 1001e510 f   KTabFile.obj
 0001:0001d590       ?GetInteger@KTabFile@@UAEHPAD0HPAH@Z 1001e590 f   KTabFile.obj
 0001:0001d600       ?GetInteger@KTabFile@@UAEHHHHPAH@Z 1001e600 f   KTabFile.obj
 0001:0001d660       ?GetFloat@KTabFile@@UAEHHPADMPAMH@Z 1001e660 f   KTabFile.obj
 0001:0001d6e0       ?GetFloat@KTabFile@@UAEHPAD0MPAM@Z 1001e6e0 f   KTabFile.obj
 0001:0001d750       ?GetFloat@KTabFile@@UAEHHHMPAM@Z 1001e750 f   KTabFile.obj
 0001:0001d7a0       ?GetValue@KTabFile@@AAEHHHPADK@Z 1001e7a0 f   KTabFile.obj
 0001:0001d860       ?Clear@KTabFile@@UAEXXZ    1001e860 f   KTabFile.obj
 0001:0001d880       ?FindRow@KTabFile@@UAEHPAD@Z 1001e880 f   KTabFile.obj
 0001:0001d8f0       ?FindColumn@KTabFile@@UAEHPAD@Z 1001e8f0 f   KTabFile.obj
 0001:0001d960       ?Col2Str@KTabFile@@QAEXHPAD@Z 1001e960 f   KTabFile.obj
 0001:0001d9b0       ?GetValue@KTabFileCtrl@@AAEHPAD00K@Z 1001e9b0 f i KTabFileCtrl.obj
 0001:0001d9f0       ?InsertAfter@KTabFileCtrl@@QAEHPADH@Z 1001e9f0 f i KTabFileCtrl.obj
 0001:0001da30       ?InsertBefore@KTabFileCtrl@@QAEHPADH@Z 1001ea30 f i KTabFileCtrl.obj
 0001:0001da70       ?GetWidth@KTabFileCtrl@@UAEHXZ 1001ea70 f i KTabFileCtrl.obj
 0001:0001dab0       ?GetHeight@KTabFileCtrl@@UAEHXZ 1001eab0 f i KTabFileCtrl.obj
 0001:0001dae0       ?GetString@KTabFileCtrl@@UAEHHPAD00KH@Z 1001eae0 f i KTabFileCtrl.obj
 0001:0001db50       ?GetString@KTabFileCtrl@@UAEHPAD000K@Z 1001eb50 f i KTabFileCtrl.obj
 0001:0001db90       ?GetInteger@KTabFileCtrl@@UAEHHPADHPAHH@Z 1001eb90 f i KTabFileCtrl.obj
 0001:0001dbf0       ?GetInteger@KTabFileCtrl@@UAEHPAD0HPAH@Z 1001ebf0 f i KTabFileCtrl.obj
 0001:0001dc30       ?GetFloat@KTabFileCtrl@@UAEHHPADMPAMH@Z 1001ec30 f i KTabFileCtrl.obj
 0001:0001dc90       ?GetFloat@KTabFileCtrl@@UAEHPAD0MPAM@Z 1001ec90 f i KTabFileCtrl.obj
 0001:0001dcd0       ?WriteString@KTabFileCtrl@@QAEHHPAD0H@Z 1001ecd0 f i KTabFileCtrl.obj
 0001:0001dd20       ?WriteString@KTabFileCtrl@@QAEHPAD00@Z 1001ed20 f i KTabFileCtrl.obj
 0001:0001dd50       ?WriteInteger@KTabFileCtrl@@QAEHHPADHH@Z 1001ed50 f i KTabFileCtrl.obj
 0001:0001dda0       ?WriteInteger@KTabFileCtrl@@QAEHPAD0H@Z 1001eda0 f i KTabFileCtrl.obj
 0001:0001ddd0       ?WriteFloat@KTabFileCtrl@@QAEHHPADMH@Z 1001edd0 f i KTabFileCtrl.obj
 0001:0001de20       ?WriteFloat@KTabFileCtrl@@QAEHPAD0M@Z 1001ee20 f i KTabFileCtrl.obj
 0001:0001de50       ?Remove@KTabFileCtrl@@QAEHPADH@Z 1001ee50 f i KTabFileCtrl.obj
 0001:0001de90       ??0KTabFileCtrl@@QAE@ABV0@@Z 1001ee90 f i KTabFileCtrl.obj
 0001:0001ded0       ??4KTabFileCtrl@@QAEAAV0@ABV0@@Z 1001eed0 f i KTabFileCtrl.obj
 0001:0001df00       ??_GKTabFileCtrl@@UAEPAXI@Z 1001ef00 f i KTabFileCtrl.obj
 0001:0001df20       ??_EKTabFileCtrl@@UAEPAXI@Z 1001ef20 f i KTabFileCtrl.obj
 0001:0001df80       ??0KTabFileCtrl@@QAE@XZ    1001ef80 f   KTabFileCtrl.obj
 0001:0001dfb0       ??1KTabFileCtrl@@UAE@XZ    1001efb0 f   KTabFileCtrl.obj
 0001:0001e010       ?Load@KTabFileCtrl@@UAEHPAD@Z 1001f010 f   KTabFileCtrl.obj
 0001:0001e310       ??_GTTabColNode@@UAEPAXI@Z 1001f310 f i KTabFileCtrl.obj
 0001:0001e310       ??_ETTabColNode@@UAEPAXI@Z 1001f310 f i KTabFileCtrl.obj
 0001:0001e330       ??1TTabColNode@@UAE@XZ     1001f330 f i KTabFileCtrl.obj
 0001:0001e380       ??_ETTabLineNode@@UAEPAXI@Z 1001f380 f i KTabFileCtrl.obj
 0001:0001e380       ??_GTTabLineNode@@UAEPAXI@Z 1001f380 f i KTabFileCtrl.obj
 0001:0001e3a0       ??1TTabLineNode@@UAE@XZ    1001f3a0 f i KTabFileCtrl.obj
 0001:0001e440       ?LoadPack@KTabFileCtrl@@QAEHPAD@Z 1001f440 f   KTabFileCtrl.obj
 0001:0001e450       ?Save@KTabFileCtrl@@UAEHPAD@Z 1001f450 f   KTabFileCtrl.obj
 0001:0001e5d0       ?GetRowName@KTabFileCtrl@@QAEPADH@Z 1001f5d0 f   KTabFileCtrl.obj
 0001:0001e620       ?GetColName@KTabFileCtrl@@QAEPADH@Z 1001f620 f   KTabFileCtrl.obj
 0001:0001e680       ?FindRow@KTabFileCtrl@@UAEHPAD@Z 1001f680 f   KTabFileCtrl.obj
 0001:0001e710       ?FindColumn@KTabFileCtrl@@UAEHPAD@Z 1001f710 f   KTabFileCtrl.obj
 0001:0001e770       ?GetValue@KTabFileCtrl@@AAEHHHAAPADK@Z 1001f770 f   KTabFileCtrl.obj
 0001:0001e800       ?SetValue@KTabFileCtrl@@AAEHHHPADKH@Z 1001f800 f   KTabFileCtrl.obj
 0001:0001ea80       ?GetString@KTabFileCtrl@@UAEHHHPAD0K@Z 1001fa80 f   KTabFileCtrl.obj
 0001:0001eae0       ?GetInteger@KTabFileCtrl@@UAEHHHHPAH@Z 1001fae0 f   KTabFileCtrl.obj
 0001:0001eb30       ?GetFloat@KTabFileCtrl@@UAEHHHMPAM@Z 1001fb30 f   KTabFileCtrl.obj
 0001:0001eb80       ?Clear@KTabFileCtrl@@UAEXXZ 1001fb80 f   KTabFileCtrl.obj
 0001:0001ec30       ?WriteString@KTabFileCtrl@@QAEHHHPADK@Z 1001fc30 f   KTabFileCtrl.obj
 0001:0001ec70       ?WriteInteger@KTabFileCtrl@@QAEHHHH@Z 1001fc70 f   KTabFileCtrl.obj
 0001:0001ecd0       ?WriteFloat@KTabFileCtrl@@QAEHHHM@Z 1001fcd0 f   KTabFileCtrl.obj
 0001:0001ed30       ?Str2Col@KTabFileCtrl@@AAEHPAD@Z 1001fd30 f   KTabFileCtrl.obj
 0001:0001ed90       ?Remove@KTabFileCtrl@@QAEHH@Z 1001fd90 f   KTabFileCtrl.obj
 0001:0001ee10       ?InsertAfter@KTabFileCtrl@@QAEHH@Z 1001fe10 f   KTabFileCtrl.obj
 0001:0001eed0       ?InsertBefore@KTabFileCtrl@@QAEHH@Z 1001fed0 f   KTabFileCtrl.obj
 0001:0001ef90       ?InsertNewCol@KTabFileCtrl@@QAEHPAD@Z 1001ff90 f   KTabFileCtrl.obj
 0001:0001efe0       ?GetWidth@KTgaFile32@@QAEJXZ 1001ffe0 f i KTgaFile32.obj
 0001:0001eff0       ?GetHeight@KTgaFile32@@QAEJXZ 1001fff0 f i KTgaFile32.obj
 0001:0001f000       ??0KTgaFile32@@QAE@XZ      10020000 f i KTgaFile32.obj
 0001:0001f010       ??4KTgaFile32@@QAEAAV0@ABV0@@Z 10020010 f i KTgaFile32.obj
 0001:0001f040       ??1KTgaFile32@@QAE@XZ      10020040 f i KTgaFile32.obj
 0001:0001f050       ?Load2Buffer@KTgaFile32@@QAEHPAD@Z 10020050 f   KTgaFile32.obj
 0001:0001f410       ??0KThread@@QAE@XZ         10020410 f   KThread.obj
 0001:0001f420       ??1KThread@@QAE@XZ         10020420 f   KThread.obj
 0001:0001f440       ?ThreadProc@KThread@@CGKPAX@Z 10020440 f   KThread.obj
 0001:0001f450       ?ThreadFunction@KThread@@AAEKXZ 10020450 f   KThread.obj
 0001:0001f460       ?Create@KThread@@QAEHP6AXPAX@Z0@Z 10020460 f   KThread.obj
 0001:0001f4a0       ?Destroy@KThread@@QAEXXZ   100204a0 f   KThread.obj
 0001:0001f4b0       ?Suspend@KThread@@QAEXXZ   100204b0 f   KThread.obj
 0001:0001f4c0       ?Resume@KThread@@QAEXXZ    100204c0 f   KThread.obj
 0001:0001f4d0       ?IsRunning@KThread@@QAEHXZ 100204d0 f   KThread.obj
 0001:0001f4f0       ?WaitForExit@KThread@@QAEXXZ 100204f0 f   KThread.obj
 0001:0001f500       ?GetPriority@KThread@@QAEHXZ 10020500 f   KThread.obj
 0001:0001f510       ?SetPriority@KThread@@QAEHH@Z 10020510 f   KThread.obj
 0001:0001f530       ??0KTimer@@QAE@XZ          10020530 f   KTimer.obj
 0001:0001f560       ?Start@KTimer@@QAEXXZ      10020560 f   KTimer.obj
 0001:0001f570       ?Stop@KTimer@@QAEXXZ       10020570 f   KTimer.obj
 0001:0001f580       ?GetElapse@KTimer@@QAEKXZ  10020580 f   KTimer.obj
 0001:0001f5d0       ?GetElapseFrequency@KTimer@@QAEKXZ 100205d0 f   KTimer.obj
 0001:0001f5f0       ?GetInterval@KTimer@@QAEKXZ 100205f0 f   KTimer.obj
 0001:0001f630       ?Passed@KTimer@@QAEHH@Z    10020630 f   KTimer.obj
 0001:0001f660       ?GetFPS@KTimer@@QAEHPAH@Z  10020660 f   KTimer.obj
 0001:0001f6a0       ??0KVideo@@QAE@XZ          100206a0 f   KVideo.obj
 0001:0001f740       ??1KVideo@@QAE@XZ          10020740 f   KVideo.obj
 0001:0001f7a0       ?ThreadFunction@KVideo@@KAXPAX@Z 100207a0 f   KVideo.obj
 0001:0001f7c0       ?Open@KVideo@@UAEHPAD@Z    100207c0 f   KVideo.obj
 0001:0001f7d0       ?Init@KVideo@@MAEHXZ       100207d0 f   KVideo.obj
 0001:0001f800       ?Close@KVideo@@UAEXXZ      10020800 f   KVideo.obj
 0001:0001f830       ?InitEventHandle@KVideo@@MAEHXZ 10020830 f   KVideo.obj
 0001:0001f880       ?FreeEventHandle@KVideo@@MAEXXZ 10020880 f   KVideo.obj
 0001:0001f8b0       ?HandleNotify@KVideo@@UAEHXZ 100208b0 f   KVideo.obj
 0001:0001f8e0       ?NextFrame@KVideo@@MAEHXZ  100208e0 f   KVideo.obj
 0001:0001f8f0       ?Play@KVideo@@UAEXHHH@Z    100208f0 f   KVideo.obj
 0001:0001f940       ?Stop@KVideo@@UAEXXZ       10020940 f   KVideo.obj
 0001:0001f970       ?IsPlaying@KVideo@@UAEHXZ  10020970 f   KVideo.obj
 0001:0001f980       ?Seek@KVideo@@UAEXH@Z      10020980 f   KVideo.obj
 0001:0001f990       ?Rewind@KVideo@@UAEXXZ     10020990 f   KVideo.obj
 0001:0001f9a0       ?g_ImaAdpcmDecode@@YAKPAXH0H@Z 100209a0 f   KWavCodec.obj
 0001:0001fbc0       ?GetWaveSize@KWavFile@@QAEKXZ 10020bc0 f i KWavFile.obj
 0001:0001fbd0       ?GetFormatTag@KWavFile@@QAEGXZ 10020bd0 f i KWavFile.obj
 0001:0001fbe0       ?GetBlockAlign@KWavFile@@QAEGXZ 10020be0 f i KWavFile.obj
 0001:0001fbf0       ??4KWavFile@@QAEAAV0@ABV0@@Z 10020bf0 f i KWavFile.obj
 0001:0001fc10       ??0KWavFile@@QAE@XZ        10020c10 f   KWavFile.obj
 0001:0001fc30       ??1KWavFile@@QAE@XZ        10020c30 f   KWavFile.obj
 0001:0001fc80       ?Open@KWavFile@@QAEHPAD@Z  10020c80 f   KWavFile.obj
 0001:0001fd80       ?Read@KWavFile@@QAEKPAXK@Z 10020d80 f   KWavFile.obj
 0001:0001fe00       ?Rewind@KWavFile@@QAEXXZ   10020e00 f   KWavFile.obj
 0001:0001fe10       ?Close@KWavFile@@QAEXXZ    10020e10 f   KWavFile.obj
 0001:0001fe40       ?GetSilenceByte@KWavFile@@QAEEXZ 10020e40 f   KWavFile.obj
 0001:0001fe60       ?GetPcmWavFormat@KWavFile@@QAEXPAUtWAVEFORMATEX@@@Z 10020e60 f   KWavFile.obj
 0001:0001ff10       ??0KWavMusic@@QAE@XZ       10020f10 f i KWavMusic.obj
 0001:0001ff60       ??0KWavMusic@@QAE@ABV0@@Z  10020f60 f i KWavMusic.obj
 0001:00020010       ??4KWavMusic@@QAEAAV0@ABV0@@Z 10021010 f i KWavMusic.obj
 0001:000200c0       ??1KWavMusic@@UAE@XZ       100210c0 f i KWavMusic.obj
 0001:00020110       ??_GKWavMusic@@UAEPAXI@Z   10021110 f i KWavMusic.obj
 0001:00020130       ??_EKWavMusic@@UAEPAXI@Z   10021130 f i KWavMusic.obj
 0001:00020190       ?Open@KWavMusic@@UAEHPAD@Z 10021190 f   KWavMusic.obj
 0001:000201c0       ?InitSoundFormat@KWavMusic@@MAEXXZ 100211c0 f   KWavMusic.obj
 0001:00020210       ?ReadWaveData@KWavMusic@@MAEKPAEK@Z 10021210 f   KWavMusic.obj
 0001:00020230       ?Rewind@KWavMusic@@UAEXXZ  10021230 f   KWavMusic.obj
 0001:00020240       ??0KWavSound@@QAE@XZ       10021240 f   KWavSound.obj
 0001:00020260       ??1KWavSound@@QAE@XZ       10021260 f   KWavSound.obj
 0001:00020270       ?Load@KWavSound@@QAEHPAD@Z 10021270 f   KWavSound.obj
 0001:00020440       ?Free@KWavSound@@QAEXXZ    10021440 f   KWavSound.obj
 0001:00020470       ?GetFreeBuffer@KWavSound@@AAEHXZ 10021470 f   KWavSound.obj
 0001:000204c0       ?GetPlayBuffer@KWavSound@@AAEHXZ 100214c0 f   KWavSound.obj
 0001:00020510       ?Play@KWavSound@@QAEXHHH@Z 10021510 f   KWavSound.obj
 0001:00020570       ?Stop@KWavSound@@QAEXXZ    10021570 f   KWavSound.obj
 0001:00020590       ?SetPan@KWavSound@@QAEXH@Z 10021590 f   KWavSound.obj
 0001:000205b0       ?SetVolume@KWavSound@@QAEXH@Z 100215b0 f   KWavSound.obj
 0001:000205d0       ?IsPlaying@KWavSound@@QAEHXZ 100215d0 f   KWavSound.obj
 0001:000205e0       ??0KWin32App@@QAE@XZ       100215e0 f   KWin32App.obj
 0001:00020610       ?Init@KWin32App@@UAEHPAUHINSTANCE__@@PAD@Z 10021610 f   KWin32App.obj
 0001:000206c0       ?InitClass@KWin32App@@MAEHPAUHINSTANCE__@@@Z 100216c0 f   KWin32App.obj
 0001:00020770       ?InitWindow@KWin32App@@MAEHPAUHINSTANCE__@@@Z 10021770 f   KWin32App.obj
 0001:000207e0       ?Run@KWin32App@@UAEXXZ     100217e0 f   KWin32App.obj
 0001:00020880       ?GameInit@KWin32App@@MAEHXZ 10021880 f   KWin32App.obj
 0001:00020890       ?GameLoop@KWin32App@@MAEHXZ 10021890 f   KWin32App.obj
 0001:000208a0       ?GameExit@KWin32App@@MAEHXZ 100218a0 f   KWin32App.obj
 0001:000208b0       ?MsgProc@KWin32App@@UAEJPAUHWND__@@IIJ@Z 100218b0 f   KWin32App.obj
 0001:00020a60       ?ShowMouse@KWin32App@@UAEXH@Z 10021a60 f   KWin32App.obj
 0001:00020a70       ?SetMultiGame@KWin32App@@UAEXH@Z 10021a70 f   KWin32App.obj
 0001:00020a80       ?SetMouseHoverTime@KWin32App@@QAEXI@Z 10021a80 f   KWin32App.obj
 0001:00020a90       ?GenerateMsgHoverMsg@KWin32App@@AAEXXZ 10021a90 f   KWin32App.obj
 0001:00020b30       ?g_GetMainHWnd@@YAPAUHWND__@@XZ 10021b30 f   KWin32Wnd.obj
 0001:00020b40       ?g_SetMainHWnd@@YAXPAUHWND__@@@Z 10021b40 f   KWin32Wnd.obj
 0001:00020b50       ?g_GetDrawHWnd@@YAPAUHWND__@@XZ 10021b50 f   KWin32Wnd.obj
 0001:00020b60       ?g_SetDrawHWnd@@YAXPAUHWND__@@@Z 10021b60 f   KWin32Wnd.obj
 0001:00020b70       ?g_GetClientRect@@YAXPAUtagRECT@@@Z 10021b70 f   KWin32Wnd.obj
 0001:00020bc0       ?g_ClientToScreen@@YAXPAUtagRECT@@@Z 10021bc0 f   KWin32Wnd.obj
 0001:00020c00       ?g_ScreenToClient@@YAXPAUtagRECT@@@Z 10021c00 f   KWin32Wnd.obj
 0001:00020c40       ?g_ScreenToClient@@YAXPAUtagPOINT@@@Z 10021c40 f   KWin32Wnd.obj
 0001:00020c60       ??4KZipCodec@@QAEAAV0@ABV0@@Z 10021c60 f i KZipCodec.obj
 0001:00020c80       ??0KZipCodec@@QAE@XZ       10021c80 f   KZipCodec.obj
 0001:00020cc0       ?Decode@KZipCodec@@QAEHPAX0PAUlf@@@Z 10021cc0 f   KZipCodec.obj
 0001:00020d10       ?extract_init@KZipCodec@@AAEXXZ 10021d10 f   KZipCodec.obj
 0001:00020d40       ?extract_file@KZipCodec@@AAEXXZ 10021d40 f   KZipCodec.obj
 0001:00020dd0       ?extract_exit@KZipCodec@@AAEXXZ 10021dd0 f   KZipCodec.obj
 0001:00020df0       ?extract_flush@KZipCodec@@AAEXXZ 10021df0 f   KZipCodec.obj
 0001:00020e20       ?store_char@KZipCodec@@AAEXD@Z 10021e20 f   KZipCodec.obj
 0001:00020e70       ?lookat_code@KZipCodec@@AAEIH@Z 10021e70 f   KZipCodec.obj
 0001:00020f10       ?get_code@KZipCodec@@AAEIH@Z 10021f10 f   KZipCodec.obj
 0001:00020f30       ?extract_copy@KZipCodec@@AAEXI@Z 10021f30 f   KZipCodec.obj
 0001:00020fc0       ?extract_stored@KZipCodec@@AAEXXZ 10021fc0 f   KZipCodec.obj
 0001:00020fd0       ?extract_inflate@KZipCodec@@AAEXXZ 10021fd0 f   KZipCodec.obj
 0001:00021080       ?inf_build_tree@KZipCodec@@AAEHPAIII00PAPAUhuffman_tree@@0@Z 10022080 f   KZipCodec.obj
 0001:000214e0       ?inf_free@KZipCodec@@AAEXPAUhuffman_tree@@@Z 100224e0 f   KZipCodec.obj
 0001:00021510       ?inf_codes@KZipCodec@@AAEHPAUhuffman_tree@@0HH@Z 10022510 f   KZipCodec.obj
 0001:00021670       ?inf_fixed@KZipCodec@@AAEHXZ 10022670 f   KZipCodec.obj
 0001:000217b0       ?inf_dynamic@KZipCodec@@AAEHXZ 100227b0 f   KZipCodec.obj
 0001:00021a50       ??0KZipData@@QAE@XZ        10022a50 f i KZipData.obj
 0001:00021aa0       ??4KZipData@@QAEAAV0@ABV0@@Z 10022aa0 f i KZipData.obj
 0001:00021ac0       ??1KZipData@@QAE@XZ        10022ac0 f i KZipData.obj
 0001:00021b10       ?Open@KZipData@@QAEHPAD@Z  10022b10 f   KZipData.obj
 0001:00021c90       ?Close@KZipData@@QAEXXZ    10022c90 f   KZipData.obj
 0001:00021cb0       ?Read@KZipData@@QAEKPAXK@Z 10022cb0 f   KZipData.obj
 0001:00021cd0       ?Seek@KZipData@@QAEKJK@Z   10022cd0 f   KZipData.obj
 0001:00021cf0       ?Tell@KZipData@@QAEKXZ     10022cf0 f   KZipData.obj
 0001:00021d00       ?Search@KZipData@@QAEHPADPAK1@Z 10022d00 f   KZipData.obj
 0001:00021d70       ?SetActive@KZipList@@QAEXH@Z 10022d70 f i KZipFile.obj
 0001:00021d80       ?GetActive@KZipList@@QAEHXZ 10022d80 f i KZipFile.obj
 0001:00021d90       ?Lock@KZipList@@QAEXXZ     10022d90 f i KZipFile.obj
 0001:00021da0       ?Unlock@KZipList@@QAEXXZ   10022da0 f i KZipFile.obj
 0001:00021db0       ??4KZipList@@QAEAAV0@ABV0@@Z 10022db0 f i KZipFile.obj
 0001:00021dd0       ??4KZipFile@@QAEAAV0@ABV0@@Z 10022dd0 f i KZipFile.obj
 0001:00021df0       ?g_SetZipFileMode@@YAXH@Z  10022df0 f   KZipFile.obj
 0001:00021e00       ??0KZipFile@@QAE@XZ        10022e00 f   KZipFile.obj
 0001:00021e50       ??1KZipFile@@QAE@XZ        10022e50 f   KZipFile.obj
 0001:00021eb0       ?Open@KZipFile@@QAEHPAD@Z  10022eb0 f   KZipFile.obj
 0001:00021f20       ?Read@KZipFile@@QAEKPAXK@Z 10022f20 f   KZipFile.obj
 0001:00021f80       ?Seek@KZipFile@@QAEKJK@Z   10022f80 f   KZipFile.obj
 0001:00021fe0       ?Tell@KZipFile@@QAEKXZ     10022fe0 f   KZipFile.obj
 0001:00021ff0       ?Size@KZipFile@@QAEKXZ     10022ff0 f   KZipFile.obj
 0001:00022000       ?Close@KZipFile@@QAEXXZ    10023000 f   KZipFile.obj
 0001:00022020       ?OpenZip@KZipFile@@AAEHPAD@Z 10023020 f   KZipFile.obj
 0001:00022190       ?ReadZip@KZipFile@@AAEKPAXK@Z 10023190 f   KZipFile.obj
 0001:000221e0       ?SeekZip@KZipFile@@AAEKJK@Z 100231e0 f   KZipFile.obj
 0001:00022230       ?Save@KZipFile@@QAEHPAD@Z  10023230 f   KZipFile.obj
 0001:00022270       ??0KZipList@@QAE@XZ        10023270 f   KZipList.obj
 0001:000222f0       ??1KZipList@@QAE@XZ        100232f0 f   KZipList.obj
 0001:00022360       ?Open@KZipList@@QAEHPAD@Z  10023360 f   KZipList.obj
 0001:00022510       ?Close@KZipList@@QAEXXZ    10023510 f   KZipList.obj
 0001:00022560       ?Read@KZipList@@QAEKPAXK@Z 10023560 f   KZipList.obj
 0001:00022590       ?Seek@KZipList@@QAEKJK@Z   10023590 f   KZipList.obj
 0001:000225c0       ?Tell@KZipList@@QAEKXZ     100235c0 f   KZipList.obj
 0001:000225e0       ?Search@KZipList@@QAEHPADPAK1@Z 100235e0 f   KZipList.obj
 0001:00022640       ?Decode@KZipList@@QAEHPAE0PAUlf@@@Z 10023640 f   KZipList.obj
 0001:00022660       ??0ZCache@@QAE@J@Z         10023660 f   ZSPRPackFile.obj
 0001:000226d0       ??_GZCache@@UAEPAXI@Z      100236d0 f i ZSPRPackFile.obj
 0001:000226d0       ??_EZCache@@UAEPAXI@Z      100236d0 f i ZSPRPackFile.obj
 0001:000226f0       ??1ZCache@@UAE@XZ          100236f0 f   ZSPRPackFile.obj
 0001:00022720       ?completeNode@ZCache@@QAEXPAD@Z 10023720 f   ZSPRPackFile.obj
 0001:00022780       ?getNode@ZCache@@QAEPADKKJ@Z 10023780 f   ZSPRPackFile.obj
 0001:00022870       ?searchNode@ZCache@@QAEPADKK@Z 10023870 f   ZSPRPackFile.obj
 0001:00022990       ?releaseNode@ZCache@@QAEXPAD@Z 10023990 f   ZSPRPackFile.obj
 0001:000229d0       ?read@ZFile@@QAEHPADKH@Z   100239d0 f   ZSPRPackFile.obj
 0001:00022a10       ?read@ZFile@@QAEPADKH@Z    10023a10 f   ZSPRPackFile.obj
 0001:00022a60       ?getNodeIndex@ZPackFile@@QAEHK@Z 10023a60 f   ZSPRPackFile.obj
 0001:00022ac0       ?getSize@ZPackFile@@QAEKK@Z 10023ac0 f   ZSPRPackFile.obj
 0001:00022ae0       ?_readData@ZPackFile@@IAE_NHPAD@Z 10023ae0 f   ZSPRPackFile.obj
 0001:00022b70       ?hash@@YAKPBD@Z            10023b70 f   ZSPRPackFile.obj
 0001:00022bd0       ??0ZPackFile@@QAE@PBDPAVZCache@@@Z 10023bd0 f   ZSPRPackFile.obj
 0001:00022ca0       ??1ZFile@@UAE@XZ           10023ca0 f i ZSPRPackFile.obj
 0001:00022cc0       ??_EZFile@@UAEPAXI@Z       10023cc0 f i ZSPRPackFile.obj
 0001:00022cc0       ??_GZFile@@UAEPAXI@Z       10023cc0 f i ZSPRPackFile.obj
 0001:00022cf0       ??_GZPackFile@@UAEPAXI@Z   10023cf0 f i ZSPRPackFile.obj
 0001:00022cf0       ??_EZPackFile@@UAEPAXI@Z   10023cf0 f i ZSPRPackFile.obj
 0001:00022d10       ??1ZPackFile@@UAE@XZ       10023d10 f   ZSPRPackFile.obj
 0001:00022d70       ?getData@ZPackFile@@QAEPADK@Z 10023d70 f   ZSPRPackFile.obj
 0001:00022de0       ?getData@ZPackFile@@QAEPADPBD@Z 10023de0 f   ZSPRPackFile.obj
 0001:00022e00       ?releaseData@ZPackFile@@QAEXPAD@Z 10023e00 f   ZSPRPackFile.obj
 0001:00022e10       ??0ZSPRPackFile@@QAE@PBDPAVZCache@@@Z 10023e10 f   ZSPRPackFile.obj
 0001:00022e30       ??_EZSPRPackFile@@UAEPAXI@Z 10023e30 f i ZSPRPackFile.obj
 0001:00022e30       ??_GZSPRPackFile@@UAEPAXI@Z 10023e30 f i ZSPRPackFile.obj
 0001:00022e50       ??1ZSPRPackFile@@UAE@XZ    10023e50 f   ZSPRPackFile.obj
 0001:00022e60       ?make_palette@@YAXPAEH@Z   10023e60 f   ZSPRPackFile.obj
 0001:00022eb0       ?getSPR@ZSPRPackFile@@QAEPADPBDHPAPAD_N@Z 10023eb0 f   ZSPRPackFile.obj
 0001:000232b0       _EDOneTimePad_Encipher     100242b0 f   EDOneTimePad.obj
 0001:000233b0       _EDOneTimePad_Decipher     100243b0 f   EDOneTimePad.obj
 0001:000234f0       _AdviseEngine              100244f0 f   Text.obj
 0001:00023500       _UnAdviseEngine            10024500 f   Text.obj
 0001:00023520       _TIsCharacterNotAlowAtLineHead 10024520 f   Text.obj
 0001:000235a0       _TGetSecondVisibleCharacterThisLine 100245a0 f   Text.obj
 0001:000235f0       _TSplitString              100245f0 f   Text.obj
 0001:00023650       _TEncodeText               10024650 f   Text.obj
 0001:00023750       _TFilterEncodedText        10024750 f   Text.obj
 0001:00023bf0       _TRemoveCtrlInEncodedText  10024bf0 f   Text.obj
 0001:00023c40       _TGetEncodedTextLineCount  10024c40 f   Text.obj
 0001:00023f40       _TGetLimitLenString        10024f40 f   Text.obj
 0001:00024010       _ucl_alloc                 10025010 f   alloc.obj
 0001:00024030       _ucl_malloc                10025030 f   alloc.obj
 0001:00024050       _ucl_free                  10025050 f   alloc.obj
 0001:00024070       _ucl_fread                 10025070 f   io.obj
 0001:00024090       _ucl_fwrite                10025090 f   io.obj
 0001:000240b0       _ucl_nrv2b_99_compress     100250b0 f   n2b_99.obj
 0001:000251a0       _ucl_nrv2b_decompress_8    100261a0 f   n2b_d.obj
 0001:00025330       _ucl_nrv2b_decompress_le16 10026330 f   n2b_d.obj
 0001:00025530       _ucl_nrv2b_decompress_le32 10026530 f   n2b_d.obj
 0001:00025710       _ucl_nrv2b_decompress_safe_8 10026710 f   n2b_ds.obj
 0001:000259d0       _ucl_nrv2b_decompress_safe_le16 100269d0 f   n2b_ds.obj
 0001:00025cd0       _ucl_nrv2b_decompress_safe_le32 10026cd0 f   n2b_ds.obj
 0001:00025fc0       _ucl_nrv2b_test_overlap_8  10026fc0 f   n2b_to.obj
 0001:00026230       _ucl_nrv2b_test_overlap_le16 10027230 f   n2b_to.obj
 0001:00026530       _ucl_nrv2b_test_overlap_le32 10027530 f   n2b_to.obj
 0001:00026850       _ucl_nrv2d_99_compress     10027850 f   n2d_99.obj
 0001:000279d0       _ucl_nrv2d_decompress_8    100289d0 f   n2d_d.obj
 0001:00027bb0       _ucl_nrv2d_decompress_le16 10028bb0 f   n2d_d.obj
 0001:00027e00       _ucl_nrv2d_decompress_le32 10028e00 f   n2d_d.obj
 0001:00028010       _ucl_nrv2d_decompress_safe_8 10029010 f   n2d_ds.obj
 0001:00028320       _ucl_nrv2d_decompress_safe_le16 10029320 f   n2d_ds.obj
 0001:00028650       _ucl_nrv2d_decompress_safe_le32 10029650 f   n2d_ds.obj
 0001:00028990       _ucl_nrv2d_test_overlap_8  10029990 f   n2d_to.obj
 0001:00028c60       _ucl_nrv2d_test_overlap_le16 10029c60 f   n2d_to.obj
 0001:00028fb0       _ucl_nrv2d_test_overlap_le32 10029fb0 f   n2d_to.obj
 0001:00029320       _ucl_nrv2e_99_compress     1002a320 f   n2e_99.obj
 0001:0002a4c0       _ucl_nrv2e_decompress_8    1002b4c0 f   n2e_d.obj
 0001:0002a6c0       _ucl_nrv2e_decompress_le16 1002b6c0 f   n2e_d.obj
 0001:0002a970       _ucl_nrv2e_decompress_le32 1002b970 f   n2e_d.obj
 0001:0002abd0       _ucl_nrv2e_decompress_safe_8 1002bbd0 f   n2e_ds.obj
 0001:0002af20       _ucl_nrv2e_decompress_safe_le16 1002bf20 f   n2e_ds.obj
 0001:0002b2c0       _ucl_nrv2e_decompress_safe_le32 1002c2c0 f   n2e_ds.obj
 0001:0002b640       _ucl_nrv2e_test_overlap_8  1002c640 f   n2e_to.obj
 0001:0002b960       _ucl_nrv2e_test_overlap_le16 1002c960 f   n2e_to.obj
 0001:0002bd10       _ucl_nrv2e_test_overlap_le32 1002cd10 f   n2e_to.obj
 0001:0002c0c0       _ucl_crc32                 1002d0c0 f   ucl_crc.obj
 0001:0002c2d0       __ucl_config_check         1002d2d0 f   ucl_init.obj
 0001:0002c630       ___ucl_init2               1002d630 f   ucl_init.obj
 0001:0002c6d0       ___ucl_ptr_linear          1002d6d0 f   ucl_ptr.obj
 0001:0002c6e0       ___ucl_align_gap           1002d6e0 f   ucl_ptr.obj
 0001:0002c710       _ucl_memcmp                1002d710 f   ucl_str.obj
 0001:0002c730       _ucl_memcpy                1002d730 f   ucl_str.obj
 0001:0002c760       _ucl_memmove               1002d760 f   ucl_str.obj
 0001:0002c780       _ucl_memset                1002d780 f   ucl_str.obj
 0001:0002c7c0       _ucl_assert                1002d7c0 f   ucl_util.obj
 0001:0002c7d0       _ucl_copyright             1002d7d0 f   ucl_util.obj
 0001:0002c7e0       _ucl_version               1002d7e0 f   ucl_util.obj
 0001:0002c7f0       _ucl_version_string        1002d7f0 f   ucl_util.obj
 0001:0002c800       _ucl_version_date          1002d800 f   ucl_util.obj
 0001:0002c810       __ucl_version_string       1002d810 f   ucl_util.obj
 0001:0002c820       __ucl_version_date         1002d820 f   ucl_util.obj
 0001:0002c830       _ucl_adler32               1002d830 f   ucl_util.obj
 0001:0002c960       _GetModuleHandleA@4        1002d960 f   kernel32:KERNEL32.dll
 0001:0002c966       _GetProcAddress@8          1002d966 f   kernel32:KERNEL32.dll
 0001:0002c96c       _LoadLibraryA@4            1002d96c f   kernel32:KERNEL32.dll
 0001:0002c972       _FreeLibrary@4             1002d972 f   kernel32:KERNEL32.dll
 0001:0002c978       _CreateEventA@16           1002d978 f   kernel32:KERNEL32.dll
 0001:0002c97e       _CloseHandle@4             1002d97e f   kernel32:KERNEL32.dll
 0001:0002c984       _SetEvent@4                1002d984 f   kernel32:KERNEL32.dll
 0001:0002c98a       _WaitForSingleObject@8     1002d98a f   kernel32:KERNEL32.dll
 0001:0002c990       _CreateFileA@28            1002d990 f   kernel32:KERNEL32.dll
 0001:0002c996       _SetFileAttributesA@8      1002d996 f   kernel32:KERNEL32.dll
 0001:0002c99c       _ReadFile@20               1002d99c f   kernel32:KERNEL32.dll
 0001:0002c9a2       _WriteFile@20              1002d9a2 f   kernel32:KERNEL32.dll
 0001:0002c9a8       _SetFilePointer@16         1002d9a8 f   kernel32:KERNEL32.dll
 0001:0002c9ae       _GetFileSize@8             1002d9ae f   kernel32:KERNEL32.dll
 0001:0002c9b4       _FindClose@4               1002d9b4 f   kernel32:KERNEL32.dll
 0001:0002c9ba       _DeleteFileA@4             1002d9ba f   kernel32:KERNEL32.dll
 0001:0002c9c0       _FindNextFileA@8           1002d9c0 f   kernel32:KERNEL32.dll
 0001:0002c9c6       _FindFirstFileA@8          1002d9c6 f   kernel32:KERNEL32.dll
 0001:0002c9cc       _CopyFileA@12              1002d9cc f   kernel32:KERNEL32.dll
 0001:0002c9d2       _CompareFileTime@8         1002d9d2 f   kernel32:KERNEL32.dll
 0001:0002c9d8       _GetCurrentDirectoryA@8    1002d9d8 f   kernel32:KERNEL32.dll
 0001:0002c9de       _GetDriveTypeA@4           1002d9de f   kernel32:KERNEL32.dll
 0001:0002c9e4       _CreateDirectoryA@8        1002d9e4 f   kernel32:KERNEL32.dll
 0001:0002c9ea       _GlobalMemoryStatus@4      1002d9ea f   kernel32:KERNEL32.dll
 0001:0002c9f0       _HeapAlloc@12              1002d9f0 f   kernel32:KERNEL32.dll
 0001:0002c9f6       _GetProcessHeap@0          1002d9f6 f   kernel32:KERNEL32.dll
 0001:0002c9fc       _HeapFree@12               1002d9fc f   kernel32:KERNEL32.dll
 0001:0002ca02       _Sleep@4                   1002da02 f   kernel32:KERNEL32.dll
 0001:0002ca08       _GetTickCount@0            1002da08 f   kernel32:KERNEL32.dll
 0001:0002ca0e       _WaitForMultipleObjects@16 1002da0e f   kernel32:KERNEL32.dll
 0001:0002ca14       _InitializeCriticalSection@4 1002da14 f   kernel32:KERNEL32.dll
 0001:0002ca1a       _DeleteCriticalSection@4   1002da1a f   kernel32:KERNEL32.dll
 0001:0002ca20       _EnterCriticalSection@4    1002da20 f   kernel32:KERNEL32.dll
 0001:0002ca26       _LeaveCriticalSection@4    1002da26 f   kernel32:KERNEL32.dll
 0001:0002ca2c       _SetCurrentDirectoryA@4    1002da2c f   kernel32:KERNEL32.dll
 0001:0002ca32       _CreateThread@24           1002da32 f   kernel32:KERNEL32.dll
 0001:0002ca38       _TerminateThread@8         1002da38 f   kernel32:KERNEL32.dll
 0001:0002ca3e       _SuspendThread@4           1002da3e f   kernel32:KERNEL32.dll
 0001:0002ca44       _ResumeThread@4            1002da44 f   kernel32:KERNEL32.dll
 0001:0002ca4a       _GetThreadPriority@4       1002da4a f   kernel32:KERNEL32.dll
 0001:0002ca50       _SetThreadPriority@8       1002da50 f   kernel32:KERNEL32.dll
 0001:0002ca56       _QueryPerformanceFrequency@4 1002da56 f   kernel32:KERNEL32.dll
 0001:0002ca5c       _QueryPerformanceCounter@4 1002da5c f   kernel32:KERNEL32.dll
 0001:0002ca62       _SetWindowPos@28           1002da62 f   user32:USER32.dll
 0001:0002ca68       _AdjustWindowRectEx@16     1002da68 f   user32:USER32.dll
 0001:0002ca6e       _GetMenu@4                 1002da6e f   user32:USER32.dll
 0001:0002ca74       _GetWindowLongA@8          1002da74 f   user32:USER32.dll
 0001:0002ca7a       _SetWindowLongA@12         1002da7a f   user32:USER32.dll
 0001:0002ca80       _FindWindowA@8             1002da80 f   user32:USER32.dll
 0001:0002ca86       _SendMessageA@16           1002da86 f   user32:USER32.dll
 0001:0002ca8c       _MessageBoxA@16            1002da8c f   user32:USER32.dll
 0001:0002ca92       _wsprintfA                 1002da92 f   user32:USER32.dll
 0001:0002ca98       _GetCursorPos@4            1002da98 f   user32:USER32.dll
 0001:0002ca9e       _PostQuitMessage@4         1002da9e f   user32:USER32.dll
 0001:0002caa4       _GetMessageA@16            1002daa4 f   user32:USER32.dll
 0001:0002caaa       _WaitMessage@0             1002daaa f   user32:USER32.dll
 0001:0002cab0       _DispatchMessageA@4        1002dab0 f   user32:USER32.dll
 0001:0002cab6       _PostMessageA@16           1002dab6 f   user32:USER32.dll
 0001:0002cabc       _RegisterClassA@4          1002dabc f   user32:USER32.dll
 0001:0002cac2       _LoadCursorA@8             1002dac2 f   user32:USER32.dll
 0001:0002cac8       _LoadIconA@8               1002dac8 f   user32:USER32.dll
 0001:0002cace       _SetFocus@4                1002dace f   user32:USER32.dll
 0001:0002cad4       _UpdateWindow@4            1002dad4 f   user32:USER32.dll
 0001:0002cada       _CreateWindowExA@48        1002dada f   user32:USER32.dll
 0001:0002cae0       _TranslateMessage@4        1002dae0 f   user32:USER32.dll
 0001:0002cae6       _PeekMessageA@20           1002dae6 f   user32:USER32.dll
 0001:0002caec       _SetCursor@4               1002daec f   user32:USER32.dll
 0001:0002caf2       _DestroyWindow@4           1002daf2 f   user32:USER32.dll
 0001:0002caf8       _DefWindowProcA@16         1002daf8 f   user32:USER32.dll
 0001:0002cafe       _GetClientRect@8           1002dafe f   user32:USER32.dll
 0001:0002cb04       _ClientToScreen@8          1002db04 f   user32:USER32.dll
 0001:0002cb0a       _ScreenToClient@8          1002db0a f   user32:USER32.dll
 0001:0002cb10       _GetStockObject@4          1002db10 f   gdi32:GDI32.dll
 0001:0002cb16       _GetOpenFileNameA@4        1002db16 f   comdlg32:comdlg32.dll
 0001:0002cb1c       _GetSaveFileNameA@4        1002db1c f   comdlg32:comdlg32.dll
 0001:0002cb22       _DirectDrawCreate@12       1002db22 f   ddraw:DDRAW.dll
 0001:0002cb28       _DirectSoundCreate@12      1002db28 f   dsound:DSOUND.dll
 0001:0002cb2e       _timeSetEvent@20           1002db2e f   winmm:WINMM.dll
 0001:0002cb34       _timeKillEvent@4           1002db34 f   winmm:WINMM.dll
 0001:0002cb3a       _timeGetTime@0             1002db3a f   winmm:WINMM.dll
 0001:0002cb40       _WSAStartup@8              1002db40 f   wsock32:WSOCK32.dll
 0001:0002cb46       _WSACleanup@0              1002db46 f   wsock32:WSOCK32.dll
 0001:0002cb4c       _closesocket@4             1002db4c f   wsock32:WSOCK32.dll
 0001:0002cb52       _shutdown@8                1002db52 f   wsock32:WSOCK32.dll
 0001:0002cb58       _htons@4                   1002db58 f   wsock32:WSOCK32.dll
 0001:0002cb5e       _gethostbyname@4           1002db5e f   wsock32:WSOCK32.dll
 0001:0002cb64       _WSAGetLastError@0         1002db64 f   wsock32:WSOCK32.dll
 0001:0002cb6a       _WSAAsyncSelect@16         1002db6a f   wsock32:WSOCK32.dll
 0001:0002cb70       _connect@12                1002db70 f   wsock32:WSOCK32.dll
 0001:0002cb76       _socket@12                 1002db76 f   wsock32:WSOCK32.dll
 0001:0002cb7c       _send@16                   1002db7c f   wsock32:WSOCK32.dll
 0001:0002cb82       _recv@16                   1002db82 f   wsock32:WSOCK32.dll
 0001:0002cb88       _listen@8                  1002db88 f   wsock32:WSOCK32.dll
 0001:0002cb8e       _bind@12                   1002db8e f   wsock32:WSOCK32.dll
 0001:0002cb94       _accept@12                 1002db94 f   wsock32:WSOCK32.dll
 0001:0002cb9a       _select@20                 1002db9a f   wsock32:WSOCK32.dll
 0001:0002cba0       ___WSAFDIsSet@8            1002dba0 f   wsock32:WSOCK32.dll
 0001:0002cba6       _DirectInput8Create@20     1002dba6 f   dinput8:DINPUT8.dll
 0001:0002dc20       _jpeg_decode_info          1002ec20 f   JpgLib:KJpegLib.obj
 0001:0002deb0       _jpeg_decode_data          1002eeb0 f   JpgLib:KJpegLib.obj
 0001:0002e0c0       _jpeg_decode_dataEx        1002f0c0 f   JpgLib:KJpegLib.obj
 0001:0002e2e0       _jpeg_init_table           1002f2e0 f   JpgLib:KJpegLib.obj
 0001:0002e310       _jpeg_free_table           1002f310 f   JpgLib:KJpegLib.obj
 0001:0002e360       _jpeg_decode_init          1002f360 f   JpgLib:KJpegColor.obj
 0001:0002edf0       _jpeg_skip_SEG             1002fdf0 f   JpgLib:KJpegSegment.obj
 0001:0002ee20       _jpeg_read_SOF             1002fe20 f   JpgLib:KJpegSegment.obj
 0001:0002ef10       _jpeg_read_SOS             1002ff10 f   JpgLib:KJpegSegment.obj
 0001:0002efa0       _jpeg_read_DQT             1002ffa0 f   JpgLib:KJpegQuanty.obj
 0001:0002f060       _jpeg_read_DHT             10030060 f   JpgLib:KJpegHuffman.obj
 0001:0002f190       _jpeg_preprocess           10030190 f   JpgLib:KJpegDecode.obj
 0001:0002f1c0       _jpeg_decode_DU            100301c0 f   JpgLib:KJpegDecode.obj
 0001:0002f420       _jpeg_idct_1d              10030420 f   JpgLib:KJpegIdct2d.obj
 0001:0002f5a0       _jpeg_idct_2d              100305a0 f   JpgLib:KJpegIdct2d.obj
 0001:0002f680       _jpeg_idct_mmx             10030680 f   JpgLib:KJpegIdct.obj
 0001:0002fcc0       _lha_encode                10030cc0 f   LhaLib:KLhaLib.obj
 0001:00030290       _lha_decode                10031290 f   LhaLib:KLhaLib.obj
 0001:00030410       _memset16                  10031410 f   LhaLib:KLhaHuf.obj
 0001:00030440       _huf_alloc                 10031440 f   LhaLib:KLhaHuf.obj
 0001:00030470       _huf_free                  10031470 f   LhaLib:KLhaHuf.obj
 0001:00030490       _output                    10031490 f   LhaLib:KLhaHuf.obj
 0001:00030ad0       _encode_start              10031ad0 f   LhaLib:KLhaHuf.obj
 0001:00030b20       _encode_end                10031b20 f   LhaLib:KLhaHuf.obj
 0001:00030b40       _decode_c                  10031b40 f   LhaLib:KLhaHuf.obj
 0001:00030ec0       _decode_p                  10031ec0 f   LhaLib:KLhaHuf.obj
 0001:00030f80       _decode_start              10031f80 f   LhaLib:KLhaHuf.obj
 0001:00030f90       _read_bytes                10031f90 f   LhaLib:KLhaIo.obj
 0001:00030ff0       _write_bytes               10031ff0 f   LhaLib:KLhaIo.obj
 0001:00031030       _fillbuf                   10032030 f   LhaLib:KLhaIo.obj
 0001:000310f0       _get_bits                  100320f0 f   LhaLib:KLhaIo.obj
 0001:00031120       _putcode                   10032120 f   LhaLib:KLhaIo.obj
 0001:000311b0       _putbits                   100321b0 f   LhaLib:KLhaIo.obj
 0001:00031240       _init_getbits              10032240 f   LhaLib:KLhaIo.obj
 0001:00031260       _init_putbits              10032260 f   LhaLib:KLhaIo.obj
 0001:00031270       _make_code                 10032270 f   LhaLib:KLhaTree.obj
 0001:000312f0       _make_tree                 100322f0 f   LhaLib:KLhaTree.obj
 0001:000316c0       _make_table                100326c0 f   LhaLib:KLhaTable.obj
 0001:000318a0       _mp3_decode_head           100328a0 f   mp3lib:KMp3Core.obj
 0001:000318c0       _mp3_decode_init           100328c0 f   mp3lib:KMp3Core.obj
 0001:000318f0       _mp3_decode_info           100328f0 f   mp3lib:KMp3Core.obj
 0001:00031900       _mp3_decode_frame          10032900 f   mp3lib:KMp3Core.obj
 0001:00031920       _L3audio_decode_head       10032920 f   mp3lib:KMp3Head.obj
 0001:00031ad0       _bitget                    10032ad0 f   mp3lib:KMp3Decode.obj
 0001:00032970       _L3audio_decode_init       10033970 f   mp3lib:KMp3Decode.obj
 0001:000331a0       _L3audio_decode_info       100341a0 f   mp3lib:KMp3Decode.obj
 0001:000331c0       _L3audio_decode_frame      100341c0 f   mp3lib:KMp3Decode.obj
 0001:000331e0       _sbt_init                  100341e0 f   mp3lib:KMp3Sbt.obj
 0001:000332a0       _sbt_mono_L3               100342a0 f   mp3lib:KMp3Sbt.obj
 0001:00033300       _sbt_dual_L3               10034300 f   mp3lib:KMp3Sbt.obj
 0001:000333d0       _sbt16_mono_L3             100343d0 f   mp3lib:KMp3Sbt.obj
 0001:00033430       _sbt16_dual_L3             10034430 f   mp3lib:KMp3Sbt.obj
 0001:000334f0       _sbt8_mono_L3              100344f0 f   mp3lib:KMp3Sbt.obj
 0001:00033550       _sbt8_dual_L3              10034550 f   mp3lib:KMp3Sbt.obj
 0001:00033610       _sbtB_mono_L3              10034610 f   mp3lib:KMp3Sbt.obj
 0001:00033670       _sbtB_dual_L3              10034670 f   mp3lib:KMp3Sbt.obj
 0001:00033730       _sbtB16_mono_L3            10034730 f   mp3lib:KMp3Sbt.obj
 0001:00033790       _sbtB16_dual_L3            10034790 f   mp3lib:KMp3Sbt.obj
 0001:00033850       _sbtB8_mono_L3             10034850 f   mp3lib:KMp3Sbt.obj
 0001:000338b0       _sbtB8_dual_L3             100348b0 f   mp3lib:KMp3Sbt.obj
 0001:00033970       _hwin_init_addr            10034970 f   mp3lib:KMp3Hybrid.obj
 0001:00033980       _hybrid                    10034980 f   mp3lib:KMp3Hybrid.obj
 0001:000339b0       _hybrid_sum                100349b0 f   mp3lib:KMp3Hybrid.obj
 0001:00033cd0       _sum_f_bands               10034cd0 f   mp3lib:KMp3Hybrid.obj
 0001:00033d00       _FreqInvert                10034d00 f   mp3lib:KMp3Hybrid.obj
 0001:00033d20       _alias_init_addr           10034d20 f   mp3lib:KMp3Msis.obj
 0001:00033d30       _msis_init_addr            10034d30 f   mp3lib:KMp3Msis.obj
 0001:00033d40       _msis_init_addr_MPEG2      10034d40 f   mp3lib:KMp3Msis.obj
 0001:00033d50       _antialias                 10034d50 f   mp3lib:KMp3Msis.obj
 0001:00033d70       _ms_process                10034d70 f   mp3lib:KMp3Msis.obj
 0001:00033da0       _is_process_MPEG1          10034da0 f   mp3lib:KMp3Msis.obj
 0001:00033f30       _is_process_MPEG2          10034f30 f   mp3lib:KMp3Msis.obj
 0001:00034140       _quant_init_global_addr    10035140 f   mp3lib:KMp3Quant.obj
 0001:00034150       _quant_init_scale_addr     10035150 f   mp3lib:KMp3Quant.obj
 0001:00034160       _quant_init_pow_addr       10035160 f   mp3lib:KMp3Quant.obj
 0001:00034170       _quant_init_subblock_addr  10035170 f   mp3lib:KMp3Quant.obj
 0001:00034180       _dequant                   10035180 f   mp3lib:KMp3Quant.obj
 0001:00034540       _unpack_huff               10035540 f   mp3lib:KMp3Huf.obj
 0001:00034a50       _unpack_huff_quad          10035a50 f   mp3lib:KMp3Huf.obj
 0001:00034e80       _unpack_sf_sub_MPEG1       10035e80 f   mp3lib:KMp3Scale.obj
 0001:00035110       _unpack_sf_sub_MPEG2       10036110 f   mp3lib:KMp3Scale.obj
 0001:000356c0       _L3table_init              100366c0 f   mp3lib:KMp3Init.obj
 0001:00035830       _hwin_init                 10036830 f   mp3lib:KMp3Init.obj
 0001:00035a10       _imdct_init                10036a10 f   mp3lib:KMp3Init.obj
 0001:00035b70       _msis_init                 10036b70 f   mp3lib:KMp3Init.obj
 0001:00035c20       _msis_init_MPEG2           10036c20 f   mp3lib:KMp3Init.obj
 0001:00035dc0       _dct_coef_addr             10036dc0 f   mp3lib:KMp3Fdct.obj
 0001:00035dd0       _fdct32                    10036dd0 f   mp3lib:KMp3Fdct.obj
 0001:00035df0       _fdct16                    10036df0 f   mp3lib:KMp3Fdct.obj
 0001:000360b0       _fdct8                     100370b0 f   mp3lib:KMp3Fdct.obj
 0001:00036180       _window                    10037180 f   mp3lib:KMp3Win.obj
 0001:000361a0       _window_dual               100371a0 f   mp3lib:KMp3Win.obj
 0001:000361c0       _window16                  100371c0 f   mp3lib:KMp3Win.obj
 0001:000361e0       _window16_dual             100371e0 f   mp3lib:KMp3Win.obj
 0001:00036200       _window8                   10037200 f   mp3lib:KMp3Win.obj
 0001:00036220       _window8_dual              10037220 f   mp3lib:KMp3Win.obj
 0001:00036240       _windowB                   10037240 f   mp3lib:KMp3WinB.obj
 0001:00036260       _windowB_dual              10037260 f   mp3lib:KMp3WinB.obj
 0001:00036280       _windowB16                 10037280 f   mp3lib:KMp3WinB.obj
 0001:000362a0       _windowB16_dual            100372a0 f   mp3lib:KMp3WinB.obj
 0001:000362c0       _windowB8                  100372c0 f   mp3lib:KMp3WinB.obj
 0001:000362e0       _windowB8_dual             100372e0 f   mp3lib:KMp3WinB.obj
 0001:00036300       _imdct18_asm               10037300     mp3lib:mp3_mdct.obj
 0001:00036706       _imdct6_3_asm              10037706     mp3lib:mp3_mdct.obj
 0001:00036937       _hybrid_asm                10037937     mp3lib:mp3_mdct.obj
 0001:00037838       _FreqInvert_asm            10038838     mp3lib:mp3_mdct.obj
 0001:00037930       _imdct_init_addr_18        10038930 f   mp3lib:KMp3Mdct.obj
 0001:00037940       _imdct_init_addr_6         10038940 f   mp3lib:KMp3Mdct.obj
 0001:00037950       _imdct18                   10038950 f   mp3lib:KMp3Mdct.obj
 0001:00037960       _imdct6_3                  10038960 f   mp3lib:KMp3Mdct.obj
 0001:00037970       _antialias_asm             10038970     mp3lib:mp3_msis.obj
 0001:00037b10       _forward_bf_asm            10038b10     mp3lib:mp3_fdct.obj
 0001:00037b97       _back_bf_asm               10038b97     mp3lib:mp3_fdct.obj
 0001:00037c0a       _fdct32_asm                10038c0a     mp3lib:mp3_fdct.obj
 0001:00038314       _fdct32_dual_asm           10039314     mp3lib:mp3_fdct.obj
 0001:00038a50       _window_mpg_asm            10039a50     mp3lib:mp3_win.obj
 0001:00038db5       _window_dual_asm           10039db5     mp3lib:mp3_win.obj
 0001:0003911a       _window16_asm              1003a11a     mp3lib:mp3_win.obj
 0001:000393d7       _window16_dual_asm         1003a3d7     mp3lib:mp3_win.obj
 0001:00039694       _window8_asm               1003a694     mp3lib:mp3_win.obj
 0001:000399f9       _window8_dual_asm          1003a9f9     mp3lib:mp3_win.obj
 0001:00039d60       _windowB_asm               1003ad60     mp3lib:mp3_winb.obj
 0001:0003a0da       _windowB_dual_asm          1003b0da     mp3lib:mp3_winb.obj
 0001:0003a454       _windowB16_asm             1003b454     mp3lib:mp3_winb.obj
 0001:0003a726       _windowB16_dual_asm        1003b726     mp3lib:mp3_winb.obj
 0001:0003a9f8       _windowB8_asm              1003b9f8     mp3lib:mp3_winb.obj
 0001:0003ad72       _windowB8_dual_asm         1003bd72     mp3lib:mp3_winb.obj
 0001:0003b0ec       _Lua_SetTable_StringFromId 1003c0ec f   LuaLibDll:LuaLibDll.dll
 0001:0003b0f2       _Lua_SetTable_DoubleFromId 1003c0f2 f   LuaLibDll:LuaLibDll.dll
 0001:0003b0f8       _Lua_SetTable_IntFromId    1003c0f8 f   LuaLibDll:LuaLibDll.dll
 0001:0003b0fe       _Lua_SetTable_CFunFromName 1003c0fe f   LuaLibDll:LuaLibDll.dll
 0001:0003b104       _Lua_SetTable_CFunFromId   1003c104 f   LuaLibDll:LuaLibDll.dll
 0001:0003b10a       _Lua_SetTable_StringFromName 1003c10a f   LuaLibDll:LuaLibDll.dll
 0001:0003b110       _Lua_SetTable_IntFromName  1003c110 f   LuaLibDll:LuaLibDll.dll
 0001:0003b116       _Lua_SetTable_DoubleFromName 1003c116 f   LuaLibDll:LuaLibDll.dll
 0001:0003b11c       _lua_open                  1003c11c f   LuaLibDll:LuaLibDll.dll
 0001:0003b122       _lua_compilebuffer         1003c122 f   LuaLibDll:LuaLibDll.dll
 0001:0003b128       _lua_execute               1003c128 f   LuaLibDll:LuaLibDll.dll
 0001:0003b12e       _lua_call                  1003c12e f   LuaLibDll:LuaLibDll.dll
 0001:0003b134       _lua_pushusertag           1003c134 f   LuaLibDll:LuaLibDll.dll
 0001:0003b13a       _lua_pushvalue             1003c13a f   LuaLibDll:LuaLibDll.dll
 0001:0003b140       _lua_pushcclosure          1003c140 f   LuaLibDll:LuaLibDll.dll
 0001:0003b146       _lua_pushnil               1003c146 f   LuaLibDll:LuaLibDll.dll
 0001:0003b14c       _lua_pushstring            1003c14c f   LuaLibDll:LuaLibDll.dll
 0001:0003b152       _lua_pushnumber            1003c152 f   LuaLibDll:LuaLibDll.dll
 0001:0003b158       _lua_getglobal             1003c158 f   LuaLibDll:LuaLibDll.dll
 0001:0003b15e       _lua_tonumber              1003c15e f   LuaLibDll:LuaLibDll.dll
 0001:0003b164       _lua_isnumber              1003c164 f   LuaLibDll:LuaLibDll.dll
 0001:0003b16a       _lua_tostring              1003c16a f   LuaLibDll:LuaLibDll.dll
 0001:0003b170       _lua_isstring              1003c170 f   LuaLibDll:LuaLibDll.dll
 0001:0003b176       _lua_gettop                1003c176 f   LuaLibDll:LuaLibDll.dll
 0001:0003b17c       _lua_newtag                1003c17c f   LuaLibDll:LuaLibDll.dll
 0001:0003b182       _lua_setglobal             1003c182 f   LuaLibDll:LuaLibDll.dll
 0001:0003b188       _lua_dblibopen             1003c188 f   LuaLibDll:LuaLibDll.dll
 0001:0003b18e       _lua_mathlibopen           1003c18e f   LuaLibDll:LuaLibDll.dll
 0001:0003b194       _lua_strlibopen            1003c194 f   LuaLibDll:LuaLibDll.dll
 0001:0003b19a       _lua_iolibopen             1003c19a f   LuaLibDll:LuaLibDll.dll
 0001:0003b1a0       _lua_baselibopen           1003c1a0 f   LuaLibDll:LuaLibDll.dll
 0001:0003b1a6       _lua_close                 1003c1a6 f   LuaLibDll:LuaLibDll.dll
 0001:0003b1ac       _lua_outerrmsg             1003c1ac f   LuaLibDll:LuaLibDll.dll
 0001:0003b1b2       _lua_gettopindex           1003c1b2 f   LuaLibDll:LuaLibDll.dll
 0001:0003b1b8       _lua_settop                1003c1b8 f   LuaLibDll:LuaLibDll.dll
 0001:0003b1be       _lua_newtable              1003c1be f   LuaLibDll:LuaLibDll.dll
 0001:0003b1c4       _lua_setgcthreshold        1003c1c4 f   LuaLibDll:LuaLibDll.dll
 0001:0003b1ca       _lua_getgccount            1003c1ca f   LuaLibDll:LuaLibDll.dll
 0001:0003b1d0       _lua_dostring              1003c1d0 f   LuaLibDll:LuaLibDll.dll
 0001:0003b1d6       ___CxxFrameHandler         1003c1d6 f   MSVCRT:MSVCRT.dll
 0001:0003b1e0       ??3@YAXPAX@Z               1003c1e0 f   MSVCRT:MSVCRT.dll
 0001:0003b1e6       ??_M@YGXPAXIHP6EX0@Z@Z     1003c1e6 f   MSVCRT:ehvecdtr.obj
 0001:0003b266       ?__ArrayUnwind@@YGXPAXIHP6EX0@Z@Z 1003c266 f   MSVCRT:ehvecdtr.obj
 0001:0003b2da       ??2@YAPAXI@Z               1003c2da f   MSVCRT:MSVCRT.dll
 0001:0003b2e0       _vsprintf                  1003c2e0 f   MSVCRT:MSVCRT.dll
 0001:0003b2e6       _exit                      1003c2e6 f   MSVCRT:MSVCRT.dll
 0001:0003b2ec       _sprintf                   1003c2ec f   MSVCRT:MSVCRT.dll
 0001:0003b2f2       __onexit                   1003c2f2 f   MSVCRT:atonexit.obj
 0001:0003b31e       _atexit                    1003c31e f   MSVCRT:atonexit.obj
 0001:0003b330       _memmove                   1003c330 f   MSVCRT:MSVCRT.dll
 0001:0003b336       _strstr                    1003c336 f   MSVCRT:MSVCRT.dll
 0001:0003b33c       _free                      1003c33c f   MSVCRT:MSVCRT.dll
 0001:0003b342       _malloc                    1003c342 f   MSVCRT:MSVCRT.dll
 0001:0003b348       ??_L@YGXPAXIHP6EX0@Z1@Z    1003c348 f   MSVCRT:ehvecctr.obj
 0001:0003b3ca       _atoi                      1003c3ca f   MSVCRT:MSVCRT.dll
 0001:0003b3d0       _atof                      1003c3d0 f   MSVCRT:MSVCRT.dll
 0001:0003b3d6       _sscanf                    1003c3d6 f   MSVCRT:MSVCRT.dll
 0001:0003b3dc       _printf                    1003c3dc f   MSVCRT:MSVCRT.dll
 0001:0003b3e2       _strchr                    1003c3e2 f   MSVCRT:MSVCRT.dll
 0001:0003b3e8       _strncpy                   1003c3e8 f   MSVCRT:MSVCRT.dll
 0001:0003b3ee       _rand                      1003c3ee f   MSVCRT:MSVCRT.dll
 0001:0003b3f4       _fclose                    1003c3f4 f   MSVCRT:MSVCRT.dll
 0001:0003b3fa       _fprintf                   1003c3fa f   MSVCRT:MSVCRT.dll
 0001:0003b400       _fopen                     1003c400 f   MSVCRT:MSVCRT.dll
 0001:0003b406       __purecall                 1003c406 f   MSVCRT:MSVCRT.dll
 0001:0003b410       __alloca_probe             1003c410 f   MSVCRT:chkstk.obj
 0001:0003b410       __chkstk                   1003c410 f   MSVCRT:chkstk.obj
 0001:0003b440       __alldiv                   1003c440 f   MSVCRT:lldiv.obj
 0001:0003b4f0       __allmul                   1003c4f0 f   MSVCRT:llmul.obj
 0001:0003b524       __ftol                     1003c524 f   MSVCRT:MSVCRT.dll
 0001:0003b52a       _fread                     1003c52a f   MSVCRT:MSVCRT.dll
 0001:0003b530       _fwrite                    1003c530 f   MSVCRT:MSVCRT.dll
 0001:0003b536       __CRT_INIT@12              1003c536 f   MSVCRT:crtdll.obj
 0001:0003b5e1       __DllMainCRTStartup@12     1003c5e1 f   MSVCRT:crtdll.obj
 0001:0003b67e       __CIpow                    1003c67e f   MSVCRT:MSVCRT.dll
 0001:0003b684       __except_handler3          1003c684 f   MSVCRT:MSVCRT.dll
 0001:0003b68a       ?terminate@@YAXXZ          1003c68a f   MSVCRT:MSVCRT.dll
 0001:0003b690       ___dllonexit               1003c690 f   MSVCRT:MSVCRT.dll
 0001:0003b696       __initterm                 1003c696 f   MSVCRT:MSVCRT.dll
 0001:0003b69c       _DllMain@12                1003c69c f   MSVCRT:dllmain.obj
 0001:0003b6c0       _ImmReleaseContext@8       1003c6c0 f   imm32:IMM32.dll
 0001:0003b6c6       _ImmGetOpenStatus@4        1003c6c6 f   imm32:IMM32.dll
 0001:0003b6cc       _ImmGetContext@4           1003c6cc f   imm32:IMM32.dll
 0001:0003b6d2       _ImmGetDefaultIMEWnd@4     1003c6d2 f   imm32:IMM32.dll
 0001:0003b6d8       _ImmSetOpenStatus@8        1003c6d8 f   imm32:IMM32.dll
 0001:0003b6de       _DisableThreadLibraryCalls@4 1003c6de f   kernel32:KERNEL32.dll
 0001:0003b6e4       __itoa                     1003c6e4 f   MSVCRT:MSVCRT.dll
 0001:0003b6ea       __stricmp                  1003c6ea f   MSVCRT:MSVCRT.dll
 0002:00000000       __imp__DirectDrawCreate@12 1003e000     ddraw:DDRAW.dll
 0002:00000004       \177DDRAW_NULL_THUNK_DATA  1003e004     ddraw:DDRAW.dll
 0002:00000008       __imp__DirectInput8Create@20 1003e008     dinput8:DINPUT8.dll
 0002:0000000c       \177DINPUT8_NULL_THUNK_DATA 1003e00c     dinput8:DINPUT8.dll
 0002:00000010       __imp__DirectSoundCreate@12 1003e010     dsound:DSOUND.dll
 0002:00000014       \177DSOUND_NULL_THUNK_DATA 1003e014     dsound:DSOUND.dll
 0002:00000018       __imp__GetStockObject@4    1003e018     gdi32:GDI32.dll
 0002:0000001c       \177GDI32_NULL_THUNK_DATA  1003e01c     gdi32:GDI32.dll
 0002:00000020       __imp__ImmSetOpenStatus@8  1003e020     imm32:IMM32.dll
 0002:00000024       __imp__ImmGetDefaultIMEWnd@4 1003e024     imm32:IMM32.dll
 0002:00000028       __imp__ImmGetContext@4     1003e028     imm32:IMM32.dll
 0002:0000002c       __imp__ImmReleaseContext@8 1003e02c     imm32:IMM32.dll
 0002:00000030       __imp__ImmGetOpenStatus@4  1003e030     imm32:IMM32.dll
 0002:00000034       \177IMM32_NULL_THUNK_DATA  1003e034     imm32:IMM32.dll
 0002:00000038       __imp__DeleteFileA@4       1003e038     kernel32:KERNEL32.dll
 0002:0000003c       __imp__FindNextFileA@8     1003e03c     kernel32:KERNEL32.dll
 0002:00000040       __imp__FindFirstFileA@8    1003e040     kernel32:KERNEL32.dll
 0002:00000044       __imp__CopyFileA@12        1003e044     kernel32:KERNEL32.dll
 0002:00000048       __imp__CompareFileTime@8   1003e048     kernel32:KERNEL32.dll
 0002:0000004c       __imp__FindClose@4         1003e04c     kernel32:KERNEL32.dll
 0002:00000050       __imp__GetCurrentDirectoryA@8 1003e050     kernel32:KERNEL32.dll
 0002:00000054       __imp__GetDriveTypeA@4     1003e054     kernel32:KERNEL32.dll
 0002:00000058       __imp__CreateDirectoryA@8  1003e058     kernel32:KERNEL32.dll
 0002:0000005c       __imp__GlobalMemoryStatus@4 1003e05c     kernel32:KERNEL32.dll
 0002:00000060       __imp__HeapAlloc@12        1003e060     kernel32:KERNEL32.dll
 0002:00000064       __imp__GetProcessHeap@0    1003e064     kernel32:KERNEL32.dll
 0002:00000068       __imp__HeapFree@12         1003e068     kernel32:KERNEL32.dll
 0002:0000006c       __imp__Sleep@4             1003e06c     kernel32:KERNEL32.dll
 0002:00000070       __imp__SetFilePointer@16   1003e070     kernel32:KERNEL32.dll
 0002:00000074       __imp__GetFileSize@8       1003e074     kernel32:KERNEL32.dll
 0002:00000078       __imp__InitializeCriticalSection@4 1003e078     kernel32:KERNEL32.dll
 0002:0000007c       __imp__DeleteCriticalSection@4 1003e07c     kernel32:KERNEL32.dll
 0002:00000080       __imp__EnterCriticalSection@4 1003e080     kernel32:KERNEL32.dll
 0002:00000084       __imp__LeaveCriticalSection@4 1003e084     kernel32:KERNEL32.dll
 0002:00000088       __imp__SetCurrentDirectoryA@4 1003e088     kernel32:KERNEL32.dll
 0002:0000008c       __imp__CreateThread@24     1003e08c     kernel32:KERNEL32.dll
 0002:00000090       __imp__TerminateThread@8   1003e090     kernel32:KERNEL32.dll
 0002:00000094       __imp__SuspendThread@4     1003e094     kernel32:KERNEL32.dll
 0002:00000098       __imp__ResumeThread@4      1003e098     kernel32:KERNEL32.dll
 0002:0000009c       __imp__GetThreadPriority@4 1003e09c     kernel32:KERNEL32.dll
 0002:000000a0       __imp__SetThreadPriority@8 1003e0a0     kernel32:KERNEL32.dll
 0002:000000a4       __imp__QueryPerformanceFrequency@4 1003e0a4     kernel32:KERNEL32.dll
 0002:000000a8       __imp__QueryPerformanceCounter@4 1003e0a8     kernel32:KERNEL32.dll
 0002:000000ac       __imp__WriteFile@20        1003e0ac     kernel32:KERNEL32.dll
 0002:000000b0       __imp__ReadFile@20         1003e0b0     kernel32:KERNEL32.dll
 0002:000000b4       __imp__WaitForMultipleObjects@16 1003e0b4     kernel32:KERNEL32.dll
 0002:000000b8       __imp__GetTickCount@0      1003e0b8     kernel32:KERNEL32.dll
 0002:000000bc       __imp__SetFileAttributesA@8 1003e0bc     kernel32:KERNEL32.dll
 0002:000000c0       __imp__CreateEventA@16     1003e0c0     kernel32:KERNEL32.dll
 0002:000000c4       __imp__GetProcAddress@8    1003e0c4     kernel32:KERNEL32.dll
 0002:000000c8       __imp__LoadLibraryA@4      1003e0c8     kernel32:KERNEL32.dll
 0002:000000cc       __imp__GetModuleHandleA@4  1003e0cc     kernel32:KERNEL32.dll
 0002:000000d0       __imp__FreeLibrary@4       1003e0d0     kernel32:KERNEL32.dll
 0002:000000d4       __imp__CreateFileA@28      1003e0d4     kernel32:KERNEL32.dll
 0002:000000d8       __imp__CloseHandle@4       1003e0d8     kernel32:KERNEL32.dll
 0002:000000dc       __imp__SetEvent@4          1003e0dc     kernel32:KERNEL32.dll
 0002:000000e0       __imp__DisableThreadLibraryCalls@4 1003e0e0     kernel32:KERNEL32.dll
 0002:000000e4       __imp__WaitForSingleObject@8 1003e0e4     kernel32:KERNEL32.dll
 0002:000000e8       \177KERNEL32_NULL_THUNK_DATA 1003e0e8     kernel32:KERNEL32.dll
 0002:000000ec       __imp__lua_open            1003e0ec     LuaLibDll:LuaLibDll.dll
 0002:000000f0       __imp__lua_pushvalue       1003e0f0     LuaLibDll:LuaLibDll.dll
 0002:000000f4       __imp__lua_pushcclosure    1003e0f4     LuaLibDll:LuaLibDll.dll
 0002:000000f8       __imp__Lua_SetTable_CFunFromId 1003e0f8     LuaLibDll:LuaLibDll.dll
 0002:000000fc       __imp__lua_isstring        1003e0fc     LuaLibDll:LuaLibDll.dll
 0002:00000100       __imp__lua_dostring        1003e100     LuaLibDll:LuaLibDll.dll
 0002:00000104       __imp__lua_getgccount      1003e104     LuaLibDll:LuaLibDll.dll
 0002:00000108       __imp__lua_setgcthreshold  1003e108     LuaLibDll:LuaLibDll.dll
 0002:0000010c       __imp__lua_newtable        1003e10c     LuaLibDll:LuaLibDll.dll
 0002:00000110       __imp__lua_settop          1003e110     LuaLibDll:LuaLibDll.dll
 0002:00000114       __imp__lua_gettopindex     1003e114     LuaLibDll:LuaLibDll.dll
 0002:00000118       __imp__lua_outerrmsg       1003e118     LuaLibDll:LuaLibDll.dll
 0002:0000011c       __imp__lua_close           1003e11c     LuaLibDll:LuaLibDll.dll
 0002:00000120       __imp__lua_baselibopen     1003e120     LuaLibDll:LuaLibDll.dll
 0002:00000124       __imp__lua_iolibopen       1003e124     LuaLibDll:LuaLibDll.dll
 0002:00000128       __imp__lua_strlibopen      1003e128     LuaLibDll:LuaLibDll.dll
 0002:0000012c       __imp__lua_execute         1003e12c     LuaLibDll:LuaLibDll.dll
 0002:00000130       __imp__lua_compilebuffer   1003e130     LuaLibDll:LuaLibDll.dll
 0002:00000134       __imp__lua_mathlibopen     1003e134     LuaLibDll:LuaLibDll.dll
 0002:00000138       __imp__lua_dblibopen       1003e138     LuaLibDll:LuaLibDll.dll
 0002:0000013c       __imp__lua_setglobal       1003e13c     LuaLibDll:LuaLibDll.dll
 0002:00000140       __imp__lua_newtag          1003e140     LuaLibDll:LuaLibDll.dll
 0002:00000144       __imp__lua_gettop          1003e144     LuaLibDll:LuaLibDll.dll
 0002:00000148       __imp__Lua_SetTable_DoubleFromName 1003e148     LuaLibDll:LuaLibDll.dll
 0002:0000014c       __imp__Lua_SetTable_IntFromName 1003e14c     LuaLibDll:LuaLibDll.dll
 0002:00000150       __imp__lua_pushnil         1003e150     LuaLibDll:LuaLibDll.dll
 0002:00000154       __imp__lua_pushstring      1003e154     LuaLibDll:LuaLibDll.dll
 0002:00000158       __imp__Lua_SetTable_CFunFromName 1003e158     LuaLibDll:LuaLibDll.dll
 0002:0000015c       __imp__Lua_SetTable_StringFromName 1003e15c     LuaLibDll:LuaLibDll.dll
 0002:00000160       __imp__Lua_SetTable_DoubleFromId 1003e160     LuaLibDll:LuaLibDll.dll
 0002:00000164       __imp__Lua_SetTable_StringFromId 1003e164     LuaLibDll:LuaLibDll.dll
 0002:00000168       __imp__lua_pushusertag     1003e168     LuaLibDll:LuaLibDll.dll
 0002:0000016c       __imp__lua_tostring        1003e16c     LuaLibDll:LuaLibDll.dll
 0002:00000170       __imp__Lua_SetTable_IntFromId 1003e170     LuaLibDll:LuaLibDll.dll
 0002:00000174       __imp__lua_isnumber        1003e174     LuaLibDll:LuaLibDll.dll
 0002:00000178       __imp__lua_tonumber        1003e178     LuaLibDll:LuaLibDll.dll
 0002:0000017c       __imp__lua_call            1003e17c     LuaLibDll:LuaLibDll.dll
 0002:00000180       __imp__lua_pushnumber      1003e180     LuaLibDll:LuaLibDll.dll
 0002:00000184       __imp__lua_getglobal       1003e184     LuaLibDll:LuaLibDll.dll
 0002:00000188       \177LuaLibDll_NULL_THUNK_DATA 1003e188     LuaLibDll:LuaLibDll.dll
 0002:0000018c       __imp___CIpow              1003e18c     MSVCRT:MSVCRT.dll
 0002:00000190       __imp__fwrite              1003e190     MSVCRT:MSVCRT.dll
 0002:00000194       __imp__itoa                1003e194     MSVCRT:MSVCRT.dll
 0002:00000194       __imp___itoa               1003e194     MSVCRT:MSVCRT.dll
 0002:00000198       __imp__rand                1003e198     MSVCRT:MSVCRT.dll
 0002:0000019c       __imp__strncpy             1003e19c     MSVCRT:MSVCRT.dll
 0002:000001a0       __imp__strchr              1003e1a0     MSVCRT:MSVCRT.dll
 0002:000001a4       __imp__fclose              1003e1a4     MSVCRT:MSVCRT.dll
 0002:000001a8       __imp__fprintf             1003e1a8     MSVCRT:MSVCRT.dll
 0002:000001ac       __imp____dllonexit         1003e1ac     MSVCRT:MSVCRT.dll
 0002:000001b0       __imp___except_handler3    1003e1b0     MSVCRT:MSVCRT.dll
 0002:000001b4       __imp_?terminate@@YAXXZ    1003e1b4     MSVCRT:MSVCRT.dll
 0002:000001b8       __imp___adjust_fdiv        1003e1b8     MSVCRT:MSVCRT.dll
 0002:000001bc       __imp___onexit             1003e1bc     MSVCRT:MSVCRT.dll
 0002:000001c0       __imp___initterm           1003e1c0     MSVCRT:MSVCRT.dll
 0002:000001c4       __imp___purecall           1003e1c4     MSVCRT:MSVCRT.dll
 0002:000001c8       __imp__fopen               1003e1c8     MSVCRT:MSVCRT.dll
 0002:000001cc       __imp__fread               1003e1cc     MSVCRT:MSVCRT.dll
 0002:000001d0       __imp___stricmp            1003e1d0     MSVCRT:MSVCRT.dll
 0002:000001d0       __imp__stricmp             1003e1d0     MSVCRT:MSVCRT.dll
 0002:000001d4       __imp___ftol               1003e1d4     MSVCRT:MSVCRT.dll
 0002:000001d8       __imp__printf              1003e1d8     MSVCRT:MSVCRT.dll
 0002:000001dc       __imp__sscanf              1003e1dc     MSVCRT:MSVCRT.dll
 0002:000001e0       __imp__atof                1003e1e0     MSVCRT:MSVCRT.dll
 0002:000001e4       __imp__atoi                1003e1e4     MSVCRT:MSVCRT.dll
 0002:000001e8       __imp__malloc              1003e1e8     MSVCRT:MSVCRT.dll
 0002:000001ec       __imp__free                1003e1ec     MSVCRT:MSVCRT.dll
 0002:000001f0       __imp__strstr              1003e1f0     MSVCRT:MSVCRT.dll
 0002:000001f4       __imp__memmove             1003e1f4     MSVCRT:MSVCRT.dll
 0002:000001f8       __imp__sprintf             1003e1f8     MSVCRT:MSVCRT.dll
 0002:000001fc       __imp__exit                1003e1fc     MSVCRT:MSVCRT.dll
 0002:00000200       __imp__vsprintf            1003e200     MSVCRT:MSVCRT.dll
 0002:00000204       __imp_??2@YAPAXI@Z         1003e204     MSVCRT:MSVCRT.dll
 0002:00000208       __imp_??3@YAXPAX@Z         1003e208     MSVCRT:MSVCRT.dll
 0002:0000020c       __imp____CxxFrameHandler   1003e20c     MSVCRT:MSVCRT.dll
 0002:00000210       \177MSVCRT_NULL_THUNK_DATA 1003e210     MSVCRT:MSVCRT.dll
 0002:00000214       __imp__DispatchMessageA@4  1003e214     user32:USER32.dll
 0002:00000218       __imp__PostMessageA@16     1003e218     user32:USER32.dll
 0002:0000021c       __imp__RegisterClassA@4    1003e21c     user32:USER32.dll
 0002:00000220       __imp__ScreenToClient@8    1003e220     user32:USER32.dll
 0002:00000224       __imp__WaitMessage@0       1003e224     user32:USER32.dll
 0002:00000228       __imp__PostQuitMessage@4   1003e228     user32:USER32.dll
 0002:0000022c       __imp__GetMessageA@16      1003e22c     user32:USER32.dll
 0002:00000230       __imp__DefWindowProcA@16   1003e230     user32:USER32.dll
 0002:00000234       __imp__DestroyWindow@4     1003e234     user32:USER32.dll
 0002:00000238       __imp__SetCursor@4         1003e238     user32:USER32.dll
 0002:0000023c       __imp__PeekMessageA@20     1003e23c     user32:USER32.dll
 0002:00000240       __imp__TranslateMessage@4  1003e240     user32:USER32.dll
 0002:00000244       __imp__CreateWindowExA@48  1003e244     user32:USER32.dll
 0002:00000248       __imp__GetCursorPos@4      1003e248     user32:USER32.dll
 0002:0000024c       __imp__SetWindowLongA@12   1003e24c     user32:USER32.dll
 0002:00000250       __imp__GetWindowLongA@8    1003e250     user32:USER32.dll
 0002:00000254       __imp__wsprintfA           1003e254     user32:USER32.dll
 0002:00000258       __imp__GetMenu@4           1003e258     user32:USER32.dll
 0002:0000025c       __imp__MessageBoxA@16      1003e25c     user32:USER32.dll
 0002:00000260       __imp__SendMessageA@16     1003e260     user32:USER32.dll
 0002:00000264       __imp__UpdateWindow@4      1003e264     user32:USER32.dll
 0002:00000268       __imp__FindWindowA@8       1003e268     user32:USER32.dll
 0002:0000026c       __imp__SetFocus@4          1003e26c     user32:USER32.dll
 0002:00000270       __imp__LoadCursorA@8       1003e270     user32:USER32.dll
 0002:00000274       __imp__ClientToScreen@8    1003e274     user32:USER32.dll
 0002:00000278       __imp__GetClientRect@8     1003e278     user32:USER32.dll
 0002:0000027c       __imp__LoadIconA@8         1003e27c     user32:USER32.dll
 0002:00000280       __imp__SetWindowPos@28     1003e280     user32:USER32.dll
 0002:00000284       __imp__AdjustWindowRectEx@16 1003e284     user32:USER32.dll
 0002:00000288       \177USER32_NULL_THUNK_DATA 1003e288     user32:USER32.dll
 0002:0000028c       __imp__timeSetEvent@20     1003e28c     winmm:WINMM.dll
 0002:00000290       __imp__timeKillEvent@4     1003e290     winmm:WINMM.dll
 0002:00000294       __imp__timeGetTime@0       1003e294     winmm:WINMM.dll
 0002:00000298       \177WINMM_NULL_THUNK_DATA  1003e298     winmm:WINMM.dll
 0002:0000029c       __imp__send@16             1003e29c     wsock32:WSOCK32.dll
 0002:000002a0       __imp__socket@12           1003e2a0     wsock32:WSOCK32.dll
 0002:000002a4       __imp__listen@8            1003e2a4     wsock32:WSOCK32.dll
 0002:000002a8       __imp__bind@12             1003e2a8     wsock32:WSOCK32.dll
 0002:000002ac       __imp__closesocket@4       1003e2ac     wsock32:WSOCK32.dll
 0002:000002b0       __imp__WSACleanup@0        1003e2b0     wsock32:WSOCK32.dll
 0002:000002b4       __imp__WSAStartup@8        1003e2b4     wsock32:WSOCK32.dll
 0002:000002b8       __imp__recv@16             1003e2b8     wsock32:WSOCK32.dll
 0002:000002bc       __imp__accept@12           1003e2bc     wsock32:WSOCK32.dll
 0002:000002c0       __imp__select@20           1003e2c0     wsock32:WSOCK32.dll
 0002:000002c4       __imp____WSAFDIsSet@8      1003e2c4     wsock32:WSOCK32.dll
 0002:000002c8       __imp__WSAGetLastError@0   1003e2c8     wsock32:WSOCK32.dll
 0002:000002cc       __imp__shutdown@8          1003e2cc     wsock32:WSOCK32.dll
 0002:000002d0       __imp__connect@12          1003e2d0     wsock32:WSOCK32.dll
 0002:000002d4       __imp__htons@4             1003e2d4     wsock32:WSOCK32.dll
 0002:000002d8       __imp__gethostbyname@4     1003e2d8     wsock32:WSOCK32.dll
 0002:000002dc       __imp__WSAAsyncSelect@16   1003e2dc     wsock32:WSOCK32.dll
 0002:000002e0       \177WSOCK32_NULL_THUNK_DATA 1003e2e0     wsock32:WSOCK32.dll
 0002:000002e4       __imp__GetSaveFileNameA@4  1003e2e4     comdlg32:comdlg32.dll
 0002:000002e8       __imp__GetOpenFileNameA@4  1003e2e8     comdlg32:comdlg32.dll
 0002:000002ec       \177comdlg32_NULL_THUNK_DATA 1003e2ec     comdlg32:comdlg32.dll
 0002:0000030c       ??_7KCodec@@6B@            1003e30c     KAutoMutex.obj
 0002:00000318       ??_7KWin32App@@6B@         1003e318     KAutoMutex.obj
 0002:00000344       ??_7KNode@@6B@             1003e344     KCache.obj
 0002:00000348       ??_7KStrNode@@6B@          1003e348     KCache.obj
 0002:00000354       ??_7KCache@@6B@            1003e354     KCache.obj
 0002:0000036c       ??_7KCacheNode@@6B@        1003e36c     KCache.obj
 0002:00000378       ??_7KDrawNode@@6B@         1003e378     KCanvas.obj
 0002:0000037c       ??_7KCodecLha@@6B@         1003e37c     KCodec.obj
 0002:00000388       ??_7KCodecLzo@@6B@         1003e388     KCodec.obj
 0002:00000394       ??_7KScript@@6B@           1003e394     KEicScript.obj
 0002:000003b4       ??_7KEicScript@@6B@        1003e3b4     KEicScript.obj
 0002:000003d8       ??_7KLuaScript@@6B@        1003e3d8     KEicScriptSet.obj
 0002:000003fc       ??_7KScriptSet@@6B@        1003e3fc     KEicScriptSet.obj
 0002:00000424       ??_7KEicScriptSet@@6B@     1003e424     KEicScriptSet.obj
 0002:0000044c       ??_7KHashNode@@6B@         1003e44c     KHashNode.obj
 0002:00000458       ??_7KStackNode@@6B@        1003e458     KLubCmpl_Blocker.obj
 0002:0000045c       ??_7KLineNode@@6B@         1003e45c     KLubCmpl_Blocker.obj
 0002:00000460       ??_7KMusic@@6B@            1003e460     KMp3Music.obj
 0002:000004ac       ??_7KMp3Music@@6B@         1003e4ac     KMp3Music.obj
 0002:00000514       ??_7KMp4Audio@@6B@         1003e514     KMp4Audio.obj
 0002:0000057c       ??_7KVideo@@6B@            1003e57c     KMp4Movie.obj
 0002:000005ac       ??_7KMp4Video@@6B@         1003e5ac     KMp4Movie.obj
 0002:000005dc       ??_7KMpgMusic@@6B@         1003e5dc     KMpgMusic.obj
 0002:00000638       ??_7KMsgNode@@6B@          1003e638     KMsgNode.obj
 0002:0000063c       ??_7KNetClient@@6B@        1003e63c     KNetClient.obj
 0002:00000664       ??_7KNetServer@@6B@        1003e664     KNetServer.obj
 0002:00000688       ??_7KOctreeNode@@6B@       1003e688     KOctree.obj
 0002:0000068c       ??_7KOctree@@6B@           1003e68c     KOctree.obj
 0002:00000690       ??_7KScriptCache@@6B@      1003e690     KScriptCache.obj
 0002:000006a8       ??_7KStepLuaScript@@6B@    1003e6a8     KScriptList.obj
 0002:000006cc       ??_7KScriptNode@@6B@       1003e6cc     KScriptList.obj
 0002:000006d0       ??_7TBinTreeNode@@6B@      1003e6d0     KSortBinTree.obj
 0002:000006dc       ??_7KSoundCache@@6B@       1003e6dc     KSoundCache.obj
 0002:000006f4       ??_7KSpriteCache@@6B@      1003e6f4     KSpriteCache.obj
 0002:0000070c       ??_7KITabFile@@6B@         1003e70c     KTabFile.obj
 0002:00000750       ??_7KTabFile@@6B@          1003e750     KTabFile.obj
 0002:00000794       ??_7KTabFileCtrl@@6B@      1003e794     KTabFileCtrl.obj
 0002:000007d8       ??_7TTabColNode@@6B@       1003e7d8     KTabFileCtrl.obj
 0002:000007dc       ??_7TTabLineNode@@6B@      1003e7dc     KTabFileCtrl.obj
 0002:00000944       ??_7KWavMusic@@6B@         1003e944     KWavMusic.obj
 0002:00000990       ??_7ZCache@@6B@            1003e990     ZSPRPackFile.obj
 0002:00000994       ??_7ZPackFile@@6B@         1003e994     ZSPRPackFile.obj
 0002:00000998       ??_7ZFile@@6B@             1003e998     ZSPRPackFile.obj
 0002:0000099c       ??_7ZSPRPackFile@@6B@      1003e99c     ZSPRPackFile.obj
 0002:00000ad4       __real@4@3ffefff9720000000000 1003ead4     Text.obj
 0002:00000ad8       __real@4@4000c000000000000000 1003ead8     Text.obj
 0002:00000adc       __real@4@3fff8000000000000000 1003eadc     Text.obj
 0002:00000ae0       __real@4@00000000000000000000 1003eae0     Text.obj
 0002:00000ae4       __real@4@40008000000000000000 1003eae4     Text.obj
 0002:00000e30       __ucl_crc32_table          1003ee30     ucl_crc.obj
 0002:00001230       ___ucl_copyright           1003f230     ucl_util.obj
 0002:000013d8       _KSDATAFORMAT_SUBTYPE_DIRECTMUSIC 1003f3d8     dxguid:dxguid.obj
 0002:000013e8       _KSDATAFORMAT_SUBTYPE_MIDI 1003f3e8     dxguid:dxguid.obj
 0002:000013f8       _IID_IKsControl            1003f3f8     dxguid:dxguid.obj
 0002:00001408       _IID_IDirectMusicAudioPath 1003f408     dxguid:dxguid.obj
 0002:00001418       _IID_IDirectMusicContainer 1003f418     dxguid:dxguid.obj
 0002:00001428       _IID_IDirectMusicScript    1003f428     dxguid:dxguid.obj
 0002:00001438       _IID_IDirectMusicPatternTrack 1003f438     dxguid:dxguid.obj
 0002:00001448       _IID_IDirectMusicStyle8    1003f448     dxguid:dxguid.obj
 0002:00001458       _IID_IDirectMusicSegmentState8 1003f458     dxguid:dxguid.obj
 0002:00001468       _IID_IDirectMusicSegment8  1003f468     dxguid:dxguid.obj
 0002:00001478       _IID_IDirectMusicPerformance8 1003f478     dxguid:dxguid.obj
 0002:00001488       _IID_IDirectMusicLoader8   1003f488     dxguid:dxguid.obj
 0002:00001498       _IID_IDirectMusicSegment2  1003f498     dxguid:dxguid.obj
 0002:000014a8       _IID_IDirectMusicPerformance2 1003f4a8     dxguid:dxguid.obj
 0002:000014b8       _IID_IDirectMusicBand      1003f4b8     dxguid:dxguid.obj
 0002:000014c8       _IID_IDirectMusicComposer  1003f4c8     dxguid:dxguid.obj
 0002:000014d8       _IID_IDirectMusicChordMap  1003f4d8     dxguid:dxguid.obj
 0002:000014e8       _IID_IDirectMusicStyle     1003f4e8     dxguid:dxguid.obj
 0002:000014f8       _IID_IDirectMusicGraph     1003f4f8     dxguid:dxguid.obj
 0002:00001508       _IID_IDirectMusicPerformance 1003f508     dxguid:dxguid.obj
 0002:00001518       _IID_IDirectMusicSegmentState 1003f518     dxguid:dxguid.obj
 0002:00001528       _IID_IDirectMusicSegment   1003f528     dxguid:dxguid.obj
 0002:00001538       _IID_IDirectMusicObject    1003f538     dxguid:dxguid.obj
 0002:00001548       _IID_IDirectMusicGetLoader 1003f548     dxguid:dxguid.obj
 0002:00001558       _IID_IDirectMusicLoader    1003f558     dxguid:dxguid.obj
 0002:00001568       _GUID_Buffer_Mono          1003f568     dxguid:dxguid.obj
 0002:00001578       _GUID_Buffer_3D_Dry        1003f578     dxguid:dxguid.obj
 0002:00001588       _GUID_Buffer_Stereo        1003f588     dxguid:dxguid.obj
 0002:00001598       _GUID_Buffer_EnvReverb     1003f598     dxguid:dxguid.obj
 0002:000015a8       _GUID_Buffer_Reverb        1003f5a8     dxguid:dxguid.obj
 0002:000015b8       _GUID_Synth_Default        1003f5b8     dxguid:dxguid.obj
 0002:000015c8       _GUID_DefaultGMCollection  1003f5c8     dxguid:dxguid.obj
 0002:000015d8       _GUID_PerfAutoDownload     1003f5d8     dxguid:dxguid.obj
 0002:000015e8       _GUID_PerfMasterGrooveLevel 1003f5e8     dxguid:dxguid.obj
 0002:000015f8       _GUID_PerfMasterVolume     1003f5f8     dxguid:dxguid.obj
 0002:00001608       _GUID_PerfMasterTempo      1003f608     dxguid:dxguid.obj
 0002:00001618       _GUID_UnloadFromAudioPath  1003f618     dxguid:dxguid.obj
 0002:00001628       _GUID_DownloadToAudioPath  1003f628     dxguid:dxguid.obj
 0002:00001638       _GUID_Variations           1003f638     dxguid:dxguid.obj
 0002:00001648       _GUID_SeedVariations       1003f648     dxguid:dxguid.obj
 0002:00001658       _GUID_EnableTempo          1003f658     dxguid:dxguid.obj
 0002:00001668       _GUID_DisableTempo         1003f668     dxguid:dxguid.obj
 0002:00001678       _GUID_EnableTimeSig        1003f678     dxguid:dxguid.obj
 0002:00001688       _GUID_DisableTimeSig       1003f688     dxguid:dxguid.obj
 0002:00001698       _GUID_StandardMIDIFile     1003f698     dxguid:dxguid.obj
 0002:000016a8       _GUID_Clear_All_Bands      1003f6a8     dxguid:dxguid.obj
 0002:000016b8       _GUID_Disable_Auto_Download 1003f6b8     dxguid:dxguid.obj
 0002:000016c8       _GUID_Enable_Auto_Download 1003f6c8     dxguid:dxguid.obj
 0002:000016d8       _GUID_ConnectToDLSCollection 1003f6d8     dxguid:dxguid.obj
 0002:000016e8       _GUID_Unload               1003f6e8     dxguid:dxguid.obj
 0002:000016f8       _GUID_Download             1003f6f8     dxguid:dxguid.obj
 0002:00001708       _GUID_MuteParam            1003f708     dxguid:dxguid.obj
 0002:00001718       _GUID_IDirectMusicChordMap 1003f718     dxguid:dxguid.obj
 0002:00001728       _GUID_IDirectMusicBand     1003f728     dxguid:dxguid.obj
 0002:00001738       _GUID_BandParam            1003f738     dxguid:dxguid.obj
 0002:00001748       _GUID_Play_Marker          1003f748     dxguid:dxguid.obj
 0002:00001758       _GUID_Valid_Start_Time     1003f758     dxguid:dxguid.obj
 0002:00001768       _GUID_TempoParam           1003f768     dxguid:dxguid.obj
 0002:00001778       _GUID_TimeSignature        1003f778     dxguid:dxguid.obj
 0002:00001788       _GUID_IDirectMusicStyle    1003f788     dxguid:dxguid.obj
 0002:00001798       _GUID_RhythmParam          1003f798     dxguid:dxguid.obj
 0002:000017a8       _GUID_ChordParam           1003f7a8     dxguid:dxguid.obj
 0002:000017b8       _GUID_CommandParamNext     1003f7b8     dxguid:dxguid.obj
 0002:000017c8       _GUID_CommandParam2        1003f7c8     dxguid:dxguid.obj
 0002:000017d8       _GUID_CommandParam         1003f7d8     dxguid:dxguid.obj
 0002:000017e8       _GUID_NOTIFICATION_RECOMPOSE 1003f7e8     dxguid:dxguid.obj
 0002:000017f8       _GUID_NOTIFICATION_COMMAND 1003f7f8     dxguid:dxguid.obj
 0002:00001808       _GUID_NOTIFICATION_CHORD   1003f808     dxguid:dxguid.obj
 0002:00001818       _GUID_NOTIFICATION_MEASUREANDBEAT 1003f818     dxguid:dxguid.obj
 0002:00001828       _GUID_NOTIFICATION_PERFORMANCE 1003f828     dxguid:dxguid.obj
 0002:00001838       _GUID_NOTIFICATION_SEGMENT 1003f838     dxguid:dxguid.obj
 0002:00001848       _GUID_DirectMusicAllTypes  1003f848     dxguid:dxguid.obj
 0002:00001858       _CLSID_DirectMusicAudioPathConfig 1003f858     dxguid:dxguid.obj
 0002:00001868       _CLSID_DirectSoundWave     1003f868     dxguid:dxguid.obj
 0002:00001878       _CLSID_DirectMusicContainer 1003f878     dxguid:dxguid.obj
 0002:00001888       _CLSID_DirectMusicScript   1003f888     dxguid:dxguid.obj
 0002:00001898       _CLSID_DirectMusicPatternTrack 1003f898     dxguid:dxguid.obj
 0002:000018a8       _CLSID_DirectMusicBand     1003f8a8     dxguid:dxguid.obj
 0002:000018b8       _CLSID_DirectMusicLoader   1003f8b8     dxguid:dxguid.obj
 0002:000018c8       _CLSID_DirectMusicComposer 1003f8c8     dxguid:dxguid.obj
 0002:000018d8       _CLSID_DirectMusicChordMap 1003f8d8     dxguid:dxguid.obj
 0002:000018e8       _CLSID_DirectMusicStyle    1003f8e8     dxguid:dxguid.obj
 0002:000018f8       _CLSID_DirectMusicGraph    1003f8f8     dxguid:dxguid.obj
 0002:00001908       _CLSID_DirectMusicSegmentState 1003f908     dxguid:dxguid.obj
 0002:00001918       _CLSID_DirectMusicSegment  1003f918     dxguid:dxguid.obj
 0002:00001928       _CLSID_DirectMusicPerformance 1003f928     dxguid:dxguid.obj
 0002:00001938       _IID_IDirectMusicTrack8    1003f938     dxguid:dxguid.obj
 0002:00001948       _IID_IDirectMusicTool8     1003f948     dxguid:dxguid.obj
 0002:00001958       _IID_IDirectMusicTool      1003f958     dxguid:dxguid.obj
 0002:00001968       _IID_IDirectMusicTrack     1003f968     dxguid:dxguid.obj
 0002:00001978       _CLSID_DirectMusicWaveTrack 1003f978     dxguid:dxguid.obj
 0002:00001988       _CLSID_DirectMusicParamControlTrack 1003f988     dxguid:dxguid.obj
 0002:00001998       _CLSID_DirectMusicLyricsTrack 1003f998     dxguid:dxguid.obj
 0002:000019a8       _CLSID_DirectMusicSegmentTriggerTrack 1003f9a8     dxguid:dxguid.obj
 0002:000019b8       _CLSID_DirectMusicMarkerTrack 1003f9b8     dxguid:dxguid.obj
 0002:000019c8       _CLSID_DirectMusicScriptTrack 1003f9c8     dxguid:dxguid.obj
 0002:000019d8       _CLSID_DirectMusicMuteTrack 1003f9d8     dxguid:dxguid.obj
 0002:000019e8       _CLSID_DirectMusicChordMapTrack 1003f9e8     dxguid:dxguid.obj
 0002:000019f8       _CLSID_DirectMusicBandTrack 1003f9f8     dxguid:dxguid.obj
 0002:00001a08       _CLSID_DirectMusicSignPostTrack 1003fa08     dxguid:dxguid.obj
 0002:00001a18       _CLSID_DirectMusicMotifTrack 1003fa18     dxguid:dxguid.obj
 0002:00001a28       _CLSID_DirectMusicStyleTrack 1003fa28     dxguid:dxguid.obj
 0002:00001a38       _CLSID_DirectMusicCommandTrack 1003fa38     dxguid:dxguid.obj
 0002:00001a48       _CLSID_DirectMusicChordTrack 1003fa48     dxguid:dxguid.obj
 0002:00001a58       _CLSID_DirectMusicTimeSigTrack 1003fa58     dxguid:dxguid.obj
 0002:00001a68       _CLSID_DirectMusicSysExTrack 1003fa68     dxguid:dxguid.obj
 0002:00001a78       _CLSID_DirectMusicSeqTrack 1003fa78     dxguid:dxguid.obj
 0002:00001a88       _CLSID_DirectMusicTempoTrack 1003fa88     dxguid:dxguid.obj
 0002:00001a98       _GUID_DMUS_PROP_Volume     1003fa98     dxguid:dxguid.obj
 0002:00001aa8       _GUID_DMUS_PROP_LegacyCaps 1003faa8     dxguid:dxguid.obj
 0002:00001ab8       _GUID_DMUS_PROP_Effects    1003fab8     dxguid:dxguid.obj
 0002:00001ac8       _GUID_DMUS_PROP_WavesReverb 1003fac8     dxguid:dxguid.obj
 0002:00001ad8       _GUID_DMUS_PROP_MemorySize 1003fad8     dxguid:dxguid.obj
 0002:00001ae8       _GUID_DMUS_PROP_WritePeriod 1003fae8     dxguid:dxguid.obj
 0002:00001af8       _GUID_DMUS_PROP_WriteLatency 1003faf8     dxguid:dxguid.obj
 0002:00001b08       _GUID_DMUS_PROP_SamplePlaybackRate 1003fb08     dxguid:dxguid.obj
 0002:00001b18       _GUID_DMUS_PROP_SampleMemorySize 1003fb18     dxguid:dxguid.obj
 0002:00001b28       _GUID_DMUS_PROP_SynthSink_WAVE 1003fb28     dxguid:dxguid.obj
 0002:00001b38       _GUID_DMUS_PROP_SynthSink_DSOUND 1003fb38     dxguid:dxguid.obj
 0002:00001b48       _GUID_DMUS_PROP_INSTRUMENT2 1003fb48     dxguid:dxguid.obj
 0002:00001b58       _GUID_DMUS_PROP_DLS2       1003fb58     dxguid:dxguid.obj
 0002:00001b68       _GUID_DMUS_PROP_DLS1       1003fb68     dxguid:dxguid.obj
 0002:00001b78       _GUID_DMUS_PROP_GS_Capable 1003fb78     dxguid:dxguid.obj
 0002:00001b88       _GUID_DMUS_PROP_XG_Capable 1003fb88     dxguid:dxguid.obj
 0002:00001b98       _GUID_DMUS_PROP_XG_Hardware 1003fb98     dxguid:dxguid.obj
 0002:00001ba8       _GUID_DMUS_PROP_GS_Hardware 1003fba8     dxguid:dxguid.obj
 0002:00001bb8       _GUID_DMUS_PROP_GM_Hardware 1003fbb8     dxguid:dxguid.obj
 0002:00001bc8       _IID_IDirectMusic8         1003fbc8     dxguid:dxguid.obj
 0002:00001bd8       _IID_IDirectMusic2         1003fbd8     dxguid:dxguid.obj
 0002:00001be8       _IID_IDirectMusicDownloadedInstrument 1003fbe8     dxguid:dxguid.obj
 0002:00001bf8       _IID_IDirectMusicInstrument 1003fbf8     dxguid:dxguid.obj
 0002:00001c08       _IID_IDirectMusicCollection 1003fc08     dxguid:dxguid.obj
 0002:00001c18       _IID_IDirectMusicDownload  1003fc18     dxguid:dxguid.obj
 0002:00001c28       _IID_IDirectMusicPortDownload 1003fc28     dxguid:dxguid.obj
 0002:00001c38       _IID_IDirectMusicThru      1003fc38     dxguid:dxguid.obj
 0002:00001c48       _IID_IDirectMusicPort      1003fc48     dxguid:dxguid.obj
 0002:00001c58       _IID_IDirectMusicBuffer    1003fc58     dxguid:dxguid.obj
 0002:00001c68       _IID_IDirectMusic          1003fc68     dxguid:dxguid.obj
 0002:00001c78       _CLSID_DirectMusicSynth    1003fc78     dxguid:dxguid.obj
 0002:00001c88       _CLSID_DirectMusicCollection 1003fc88     dxguid:dxguid.obj
 0002:00001c98       _CLSID_DirectMusic         1003fc98     dxguid:dxguid.obj
 0002:00001ca8       _IID_IDirectPlay8LobbyClient 1003fca8     dxguid:dxguid.obj
 0002:00001cb8       _IID_IDirectPlay8LobbiedApplication 1003fcb8     dxguid:dxguid.obj
 0002:00001cc8       _CLSID_DirectPlay8LobbyClient 1003fcc8     dxguid:dxguid.obj
 0002:00001cd8       _CLSID_DirectPlay8LobbiedApplication 1003fcd8     dxguid:dxguid.obj
 0002:00001ce8       _CLSID_DP8SP_BLUETOOTH     1003fce8     dxguid:dxguid.obj
 0002:00001cf8       _CLSID_DP8SP_TCPIP         1003fcf8     dxguid:dxguid.obj
 0002:00001d08       _CLSID_DP8SP_SERIAL        1003fd08     dxguid:dxguid.obj
 0002:00001d18       _CLSID_DP8SP_MODEM         1003fd18     dxguid:dxguid.obj
 0002:00001d28       _CLSID_DP8SP_IPX           1003fd28     dxguid:dxguid.obj
 0002:00001d38       _IID_IDirectPlay8NATResolver 1003fd38     dxguid:dxguid.obj
 0002:00001d48       _IID_IDirectPlay8ThreadPool 1003fd48     dxguid:dxguid.obj
 0002:00001d58       _IID_IDirectPlay8Peer      1003fd58     dxguid:dxguid.obj
 0002:00001d68       _IID_IDirectPlay8Server    1003fd68     dxguid:dxguid.obj
 0002:00001d78       _IID_IDirectPlay8Client    1003fd78     dxguid:dxguid.obj
 0002:00001d88       _CLSID_DirectPlay8NATResolver 1003fd88     dxguid:dxguid.obj
 0002:00001d98       _CLSID_DirectPlay8ThreadPool 1003fd98     dxguid:dxguid.obj
 0002:00001da8       _CLSID_DirectPlay8Peer     1003fda8     dxguid:dxguid.obj
 0002:00001db8       _CLSID_DirectPlay8Server   1003fdb8     dxguid:dxguid.obj
 0002:00001dc8       _CLSID_DirectPlay8Client   1003fdc8     dxguid:dxguid.obj
 0002:00001dd8       _IID_IDirectPlay8AddressIP 1003fdd8     dxguid:dxguid.obj
 0002:00001de8       _IID_IDirectPlay8Address   1003fde8     dxguid:dxguid.obj
 0002:00001df8       _CLSID_DirectPlay8Address  1003fdf8     dxguid:dxguid.obj
 0002:00001e08       _DPVCTGUID_VR12            1003fe08     dxguid:dxguid.obj
 0002:00001e18       _DPVCTGUID_TRUESPEECH      1003fe18     dxguid:dxguid.obj
 0002:00001e28       _DPVCTGUID_SC06            1003fe28     dxguid:dxguid.obj
 0002:00001e38       _DPVCTGUID_SC03            1003fe38     dxguid:dxguid.obj
 0002:00001e48       _DPVCTGUID_NONE            1003fe48     dxguid:dxguid.obj
 0002:00001e58       _DPVCTGUID_GSM             1003fe58     dxguid:dxguid.obj
 0002:00001e68       _DPVCTGUID_ADPCM           1003fe68     dxguid:dxguid.obj
 0002:00001e78       _IID_IDirectPlayVoiceTest  1003fe78     dxguid:dxguid.obj
 0002:00001e88       _IID_IDirectPlayVoiceServer 1003fe88     dxguid:dxguid.obj
 0002:00001e98       _IID_IDirectPlayVoiceClient 1003fe98     dxguid:dxguid.obj
 0002:00001ea8       _CLSID_DirectPlayVoiceTest 1003fea8     dxguid:dxguid.obj
 0002:00001eb8       _CLSID_DirectPlayVoiceServer 1003feb8     dxguid:dxguid.obj
 0002:00001ec8       _CLSID_DirectPlayVoiceClient 1003fec8     dxguid:dxguid.obj
 0002:00001ed8       _GUID_DSCFX_SYSTEM_NS      1003fed8     dxguid:dxguid.obj
 0002:00001ee8       _GUID_DSCFX_MS_NS          1003fee8     dxguid:dxguid.obj
 0002:00001ef8       _GUID_DSCFX_CLASS_NS       1003fef8     dxguid:dxguid.obj
 0002:00001f08       _GUID_DSCFX_SYSTEM_AEC     1003ff08     dxguid:dxguid.obj
 0002:00001f18       _GUID_DSCFX_MS_AEC         1003ff18     dxguid:dxguid.obj
 0002:00001f28       _GUID_DSCFX_CLASS_AEC      1003ff28     dxguid:dxguid.obj
 0002:00001f38       _GUID_DSFX_WAVES_REVERB    1003ff38     dxguid:dxguid.obj
 0002:00001f48       _GUID_DSFX_STANDARD_I3DL2REVERB 1003ff48     dxguid:dxguid.obj
 0002:00001f58       _GUID_DSFX_STANDARD_PARAMEQ 1003ff58     dxguid:dxguid.obj
 0002:00001f68       _GUID_DSFX_STANDARD_COMPRESSOR 1003ff68     dxguid:dxguid.obj
 0002:00001f78       _GUID_DSFX_STANDARD_DISTORTION 1003ff78     dxguid:dxguid.obj
 0002:00001f88       _GUID_DSFX_STANDARD_ECHO   1003ff88     dxguid:dxguid.obj
 0002:00001f98       _GUID_DSFX_STANDARD_FLANGER 1003ff98     dxguid:dxguid.obj
 0002:00001fa8       _GUID_DSFX_STANDARD_CHORUS 1003ffa8     dxguid:dxguid.obj
 0002:00001fb8       _GUID_DSFX_STANDARD_GARGLE 1003ffb8     dxguid:dxguid.obj
 0002:00001fc8       _DS3DALG_HRTF_LIGHT        1003ffc8     dxguid:dxguid.obj
 0002:00001fd8       _DS3DALG_HRTF_FULL         1003ffd8     dxguid:dxguid.obj
 0002:00001fe8       _DS3DALG_NO_VIRTUALIZATION 1003ffe8     dxguid:dxguid.obj
 0002:00001ff8       _IID_IDirectSoundFullDuplex 1003fff8     dxguid:dxguid.obj
 0002:00002008       _IID_IDirectSoundCaptureFXNoiseSuppress 10040008     dxguid:dxguid.obj
 0002:00002018       _IID_IDirectSoundCaptureFXAec 10040018     dxguid:dxguid.obj
 0002:00002028       _IID_IDirectSoundFXWavesReverb 10040028     dxguid:dxguid.obj
 0002:00002038       _IID_IDirectSoundFXI3DL2Reverb 10040038     dxguid:dxguid.obj
 0002:00002048       _IID_IDirectSoundFXParamEq 10040048     dxguid:dxguid.obj
 0002:00002058       _IID_IDirectSoundFXCompressor 10040058     dxguid:dxguid.obj
 0002:00002068       _IID_IDirectSoundFXDistortion 10040068     dxguid:dxguid.obj
 0002:00002078       _IID_IDirectSoundFXEcho    10040078     dxguid:dxguid.obj
 0002:00002088       _IID_IDirectSoundFXFlanger 10040088     dxguid:dxguid.obj
 0002:00002098       _IID_IDirectSoundFXChorus  10040098     dxguid:dxguid.obj
 0002:000020a8       _IID_IDirectSoundFXGargle  100400a8     dxguid:dxguid.obj
 0002:000020b8       _IID_IKsPropertySet        100400b8     dxguid:dxguid.obj
 0002:000020c8       _IID_IDirectSoundNotify    100400c8     dxguid:dxguid.obj
 0002:000020d8       _IID_IDirectSoundCaptureBuffer8 100400d8     dxguid:dxguid.obj
 0002:000020e8       _IID_IDirectSoundCaptureBuffer 100400e8     dxguid:dxguid.obj
 0002:000020f8       _IID_IDirectSoundCapture   100400f8     dxguid:dxguid.obj
 0002:00002108       _IID_IDirectSound3DBuffer  10040108     dxguid:dxguid.obj
 0002:00002118       _IID_IDirectSound3DListener 10040118     dxguid:dxguid.obj
 0002:00002128       _GUID_All_Objects          10040128     dxguid:dxguid.obj
 0002:00002138       _IID_IDirectSoundBuffer8   10040138     dxguid:dxguid.obj
 0002:00002148       _IID_IDirectSoundBuffer    10040148     dxguid:dxguid.obj
 0002:00002158       _IID_IDirectSound8         10040158     dxguid:dxguid.obj
 0002:00002168       _IID_IDirectSound          10040168     dxguid:dxguid.obj
 0002:00002178       _IID_IReferenceClock       10040178     dxguid:dxguid.obj
 0002:00002188       _DSDEVID_DefaultVoiceCapture 10040188     dxguid:dxguid.obj
 0002:00002198       _DSDEVID_DefaultVoicePlayback 10040198     dxguid:dxguid.obj
 0002:000021a8       _DSDEVID_DefaultCapture    100401a8     dxguid:dxguid.obj
 0002:000021b8       _DSDEVID_DefaultPlayback   100401b8     dxguid:dxguid.obj
 0002:000021c8       _CLSID_DirectSoundFullDuplex 100401c8     dxguid:dxguid.obj
 0002:000021d8       _CLSID_DirectSoundCapture8 100401d8     dxguid:dxguid.obj
 0002:000021e8       _CLSID_DirectSoundCapture  100401e8     dxguid:dxguid.obj
 0002:000021f8       _CLSID_DirectSound8        100401f8     dxguid:dxguid.obj
 0002:00002208       _CLSID_DirectSound         10040208     dxguid:dxguid.obj
 0002:00002218       _DPAID_ComPort             10040218     dxguid:dxguid.obj
 0002:00002228       _DPAID_INetPort            10040228     dxguid:dxguid.obj
 0002:00002238       _DPAID_INetW               10040238     dxguid:dxguid.obj
 0002:00002248       _DPAID_INet                10040248     dxguid:dxguid.obj
 0002:00002258       _DPAID_ModemW              10040258     dxguid:dxguid.obj
 0002:00002268       _DPAID_Modem               10040268     dxguid:dxguid.obj
 0002:00002278       _DPAID_PhoneW              10040278     dxguid:dxguid.obj
 0002:00002288       _DPAID_Phone               10040288     dxguid:dxguid.obj
 0002:00002298       _DPAID_LobbyProvider       10040298     dxguid:dxguid.obj
 0002:000022a8       _DPAID_ServiceProvider     100402a8     dxguid:dxguid.obj
 0002:000022b8       _DPAID_TotalSize           100402b8     dxguid:dxguid.obj
 0002:000022c8       _DPLPROPERTY_PlayerScore   100402c8     dxguid:dxguid.obj
 0002:000022d8       _DPLPROPERTY_PlayerGuid    100402d8     dxguid:dxguid.obj
 0002:000022e8       _DPLPROPERTY_LobbyGuid     100402e8     dxguid:dxguid.obj
 0002:000022f8       _DPLPROPERTY_MessagesSupported 100402f8     dxguid:dxguid.obj
 0002:00002308       _CLSID_DirectPlayLobby     10040308     dxguid:dxguid.obj
 0002:00002318       _IID_IDirectPlayLobby3A    10040318     dxguid:dxguid.obj
 0002:00002328       _IID_IDirectPlayLobby3     10040328     dxguid:dxguid.obj
 0002:00002338       _IID_IDirectPlayLobby2A    10040338     dxguid:dxguid.obj
 0002:00002348       _IID_IDirectPlayLobby2     10040348     dxguid:dxguid.obj
 0002:00002358       _IID_IDirectPlayLobbyA     10040358     dxguid:dxguid.obj
 0002:00002368       _IID_IDirectPlayLobby      10040368     dxguid:dxguid.obj
 0002:00002378       _IID_IDirectPlay           10040378     dxguid:dxguid.obj
 0002:00002388       _DPSPGUID_MODEM            10040388     dxguid:dxguid.obj
 0002:00002398       _DPSPGUID_SERIAL           10040398     dxguid:dxguid.obj
 0002:000023a8       _DPSPGUID_TCPIP            100403a8     dxguid:dxguid.obj
 0002:000023b8       _DPSPGUID_IPX              100403b8     dxguid:dxguid.obj
 0002:000023c8       _CLSID_DirectPlay          100403c8     dxguid:dxguid.obj
 0002:000023d8       _IID_IDirectPlay4A         100403d8     dxguid:dxguid.obj
 0002:000023e8       _IID_IDirectPlay4          100403e8     dxguid:dxguid.obj
 0002:000023f8       _IID_IDirectPlay3A         100403f8     dxguid:dxguid.obj
 0002:00002408       _IID_IDirectPlay3          10040408     dxguid:dxguid.obj
 0002:00002418       _IID_IDirectPlay2A         10040418     dxguid:dxguid.obj
 0002:00002428       _IID_IDirectPlay2          10040428     dxguid:dxguid.obj
 0002:00002438       _GUID_HIDClass             10040438     dxguid:dxguid.obj
 0002:00002448       _GUID_MouseClass           10040448     dxguid:dxguid.obj
 0002:00002458       _GUID_MediaClass           10040458     dxguid:dxguid.obj
 0002:00002468       _GUID_KeyboardClass        10040468     dxguid:dxguid.obj
 0002:00002478       _IID_IDirectInputJoyConfig8 10040478     dxguid:dxguid.obj
 0002:00002488       _IID_IDirectInputPIDDriver 10040488     dxguid:dxguid.obj
 0002:00002498       _IID_IDirectInputJoyConfig 10040498     dxguid:dxguid.obj
 0002:000024a8       _IID_IDirectInputEffectDriver 100404a8     dxguid:dxguid.obj
 0002:000024b8       _GUID_CustomForce          100404b8     dxguid:dxguid.obj
 0002:000024c8       _GUID_Friction             100404c8     dxguid:dxguid.obj
 0002:000024d8       _GUID_Inertia              100404d8     dxguid:dxguid.obj
 0002:000024e8       _GUID_Damper               100404e8     dxguid:dxguid.obj
 0002:000024f8       _GUID_Spring               100404f8     dxguid:dxguid.obj
 0002:00002508       _GUID_SawtoothDown         10040508     dxguid:dxguid.obj
 0002:00002518       _GUID_SawtoothUp           10040518     dxguid:dxguid.obj
 0002:00002528       _GUID_Triangle             10040528     dxguid:dxguid.obj
 0002:00002538       _GUID_Sine                 10040538     dxguid:dxguid.obj
 0002:00002548       _GUID_Square               10040548     dxguid:dxguid.obj
 0002:00002558       _GUID_RampForce            10040558     dxguid:dxguid.obj
 0002:00002568       _GUID_ConstantForce        10040568     dxguid:dxguid.obj
 0002:00002578       _GUID_SysKeyboardEm2       10040578     dxguid:dxguid.obj
 0002:00002588       _GUID_SysKeyboardEm        10040588     dxguid:dxguid.obj
 0002:00002598       _GUID_SysMouseEm2          10040598     dxguid:dxguid.obj
 0002:000025a8       _GUID_SysMouseEm           100405a8     dxguid:dxguid.obj
 0002:000025b8       _GUID_Joystick             100405b8     dxguid:dxguid.obj
 0002:000025c8       _GUID_SysKeyboard          100405c8     dxguid:dxguid.obj
 0002:000025d8       _GUID_SysMouse             100405d8     dxguid:dxguid.obj
 0002:000025e8       _GUID_Unknown              100405e8     dxguid:dxguid.obj
 0002:000025f8       _GUID_POV                  100405f8     dxguid:dxguid.obj
 0002:00002608       _GUID_Key                  10040608     dxguid:dxguid.obj
 0002:00002618       _GUID_Button               10040618     dxguid:dxguid.obj
 0002:00002628       _GUID_Slider               10040628     dxguid:dxguid.obj
 0002:00002638       _GUID_RzAxis               10040638     dxguid:dxguid.obj
 0002:00002648       _GUID_RyAxis               10040648     dxguid:dxguid.obj
 0002:00002658       _GUID_RxAxis               10040658     dxguid:dxguid.obj
 0002:00002668       _GUID_ZAxis                10040668     dxguid:dxguid.obj
 0002:00002678       _GUID_YAxis                10040678     dxguid:dxguid.obj
 0002:00002688       _GUID_XAxis                10040688     dxguid:dxguid.obj
 0002:00002698       _IID_IDirectInputEffect    10040698     dxguid:dxguid.obj
 0002:000026a8       _IID_IDirectInputDevice8W  100406a8     dxguid:dxguid.obj
 0002:000026b8       _IID_IDirectInputDevice8A  100406b8     dxguid:dxguid.obj
 0002:000026c8       _IID_IDirectInputDevice7W  100406c8     dxguid:dxguid.obj
 0002:000026d8       _IID_IDirectInputDevice7A  100406d8     dxguid:dxguid.obj
 0002:000026e8       _IID_IDirectInputDevice2W  100406e8     dxguid:dxguid.obj
 0002:000026f8       _IID_IDirectInputDevice2A  100406f8     dxguid:dxguid.obj
 0002:00002708       _IID_IDirectInputDeviceW   10040708     dxguid:dxguid.obj
 0002:00002718       _IID_IDirectInputDeviceA   10040718     dxguid:dxguid.obj
 0002:00002728       _IID_IDirectInput8W        10040728     dxguid:dxguid.obj
 0002:00002738       _IID_IDirectInput8A        10040738     dxguid:dxguid.obj
 0002:00002748       _IID_IDirectInput7W        10040748     dxguid:dxguid.obj
 0002:00002758       _IID_IDirectInput7A        10040758     dxguid:dxguid.obj
 0002:00002768       _IID_IDirectInput2W        10040768     dxguid:dxguid.obj
 0002:00002778       _IID_IDirectInput2A        10040778     dxguid:dxguid.obj
 0002:00002788       _IID_IDirectInputW         10040788     dxguid:dxguid.obj
 0002:00002798       _IID_IDirectInputA         10040798     dxguid:dxguid.obj
 0002:000027a8       _CLSID_DirectInputDevice8  100407a8     dxguid:dxguid.obj
 0002:000027b8       _CLSID_DirectInput8        100407b8     dxguid:dxguid.obj
 0002:000027c8       _CLSID_DirectInputDevice   100407c8     dxguid:dxguid.obj
 0002:000027d8       _CLSID_DirectInput         100407d8     dxguid:dxguid.obj
 0002:000027e8       _TID_DXFILEHeader          100407e8     dxguid:dxguid.obj
 0002:000027f8       _IID_IDirectXFileBinary    100407f8     dxguid:dxguid.obj
 0002:00002808       _IID_IDirectXFileDataReference 10040808     dxguid:dxguid.obj
 0002:00002818       _IID_IDirectXFileData      10040818     dxguid:dxguid.obj
 0002:00002828       _IID_IDirectXFileObject    10040828     dxguid:dxguid.obj
 0002:00002838       _IID_IDirectXFileSaveObject 10040838     dxguid:dxguid.obj
 0002:00002848       _IID_IDirectXFileEnumObject 10040848     dxguid:dxguid.obj
 0002:00002858       _IID_IDirectXFile          10040858     dxguid:dxguid.obj
 0002:00002868       _CLSID_CDirectXFile        10040868     dxguid:dxguid.obj
 0002:00002878       _TID_D3DRMRightHanded      10040878     dxguid:dxguid.obj
 0002:00002888       _TID_D3DRMPropertyBag      10040888     dxguid:dxguid.obj
 0002:00002898       _TID_D3DRMStringProperty   10040898     dxguid:dxguid.obj
 0002:000028a8       _TID_D3DRMExternalVisual   100408a8     dxguid:dxguid.obj
 0002:000028b8       _TID_D3DRMProgressiveMesh  100408b8     dxguid:dxguid.obj
 0002:000028c8       _TID_D3DRMUrl              100408c8     dxguid:dxguid.obj
 0002:000028d8       _TID_D3DRMInlineData       100408d8     dxguid:dxguid.obj
 0002:000028e8       _TID_D3DRMLightAttenuation 100408e8     dxguid:dxguid.obj
 0002:000028f8       _TID_D3DRMLightPenumbra    100408f8     dxguid:dxguid.obj
 0002:00002908       _TID_D3DRMLightRange       10040908     dxguid:dxguid.obj
 0002:00002918       _TID_D3DRMLightUmbra       10040918     dxguid:dxguid.obj
 0002:00002928       _TID_D3DRMAppData          10040928     dxguid:dxguid.obj
 0002:00002938       _TID_D3DRMCamera           10040938     dxguid:dxguid.obj
 0002:00002948       _TID_D3DRMLight            10040948     dxguid:dxguid.obj
 0002:00002958       _TID_D3DRMFrameRotation    10040958     dxguid:dxguid.obj
 0002:00002968       _TID_D3DRMFrameVelocity    10040968     dxguid:dxguid.obj
 0002:00002978       _TID_D3DRMFramePosition    10040978     dxguid:dxguid.obj
 0002:00002988       _TID_D3DRMAnimationOptions 10040988     dxguid:dxguid.obj
 0002:00002998       _TID_D3DRMTimedFloatKeys   10040998     dxguid:dxguid.obj
 0002:000029a8       _TID_D3DRMBoolean2d        100409a8     dxguid:dxguid.obj
 0002:000029b8       _TID_D3DRMMeshFaceWraps    100409b8     dxguid:dxguid.obj
 0002:000029c8       _TID_D3DRMBoolean          100409c8     dxguid:dxguid.obj
 0002:000029d8       _TID_D3DRMMaterialWrap     100409d8     dxguid:dxguid.obj
 0002:000029e8       _TID_D3DRMMeshVertexColors 100409e8     dxguid:dxguid.obj
 0002:000029f8       _TID_D3DRMIndexedColor     100409f8     dxguid:dxguid.obj
 0002:00002a08       _TID_D3DRMTextureReference 10040a08     dxguid:dxguid.obj
 0002:00002a18       _TID_D3DRMTextureFilename  10040a18     dxguid:dxguid.obj
 0002:00002a28       _TID_D3DRMGuid             10040a28     dxguid:dxguid.obj
 0002:00002a38       _TID_D3DRMColorRGB         10040a38     dxguid:dxguid.obj
 0002:00002a48       _TID_D3DRMColorRGBA        10040a48     dxguid:dxguid.obj
 0002:00002a58       _TID_D3DRMMaterialPower    10040a58     dxguid:dxguid.obj
 0002:00002a68       _TID_D3DRMMaterialEmissiveColor 10040a68     dxguid:dxguid.obj
 0002:00002a78       _TID_D3DRMMaterialSpecularColor 10040a78     dxguid:dxguid.obj
 0002:00002a88       _TID_D3DRMMaterialDiffuseColor 10040a88     dxguid:dxguid.obj
 0002:00002a98       _TID_D3DRMMaterialAmbientColor 10040a98     dxguid:dxguid.obj
 0002:00002aa8       _TID_D3DRMFloatKeys        10040aa8     dxguid:dxguid.obj
 0002:00002ab8       _TID_D3DRMAnimationKey     10040ab8     dxguid:dxguid.obj
 0002:00002ac8       _TID_D3DRMAnimationSet     10040ac8     dxguid:dxguid.obj
 0002:00002ad8       _TID_D3DRMAnimation        10040ad8     dxguid:dxguid.obj
 0002:00002ae8       _TID_D3DRMMatrix4x4        10040ae8     dxguid:dxguid.obj
 0002:00002af8       _TID_D3DRMCoords2d         10040af8     dxguid:dxguid.obj
 0002:00002b08       _TID_D3DRMMeshNormals      10040b08     dxguid:dxguid.obj
 0002:00002b18       _TID_D3DRMMeshTextureCoords 10040b18     dxguid:dxguid.obj
 0002:00002b28       _TID_D3DRMMeshMaterialList 10040b28     dxguid:dxguid.obj
 0002:00002b38       _TID_D3DRMFrameTransformMatrix 10040b38     dxguid:dxguid.obj
 0002:00002b48       _TID_D3DRMFrame            10040b48     dxguid:dxguid.obj
 0002:00002b58       _TID_D3DRMMaterialArray    10040b58     dxguid:dxguid.obj
 0002:00002b68       _TID_D3DRMMaterial         10040b68     dxguid:dxguid.obj
 0002:00002b78       _TID_D3DRMMeshFace         10040b78     dxguid:dxguid.obj
 0002:00002b88       _TID_D3DRMVector           10040b88     dxguid:dxguid.obj
 0002:00002b98       _TID_D3DRMMesh             10040b98     dxguid:dxguid.obj
 0002:00002ba8       _TID_D3DRMInfo             10040ba8     dxguid:dxguid.obj
 0002:00002bb8       _IID_IDirect3DRMWinDevice  10040bb8     dxguid:dxguid.obj
 0002:00002bc8       _CLSID_CDirect3DRM         10040bc8     dxguid:dxguid.obj
 0002:00002bd8       _IID_IDirect3DRM3          10040bd8     dxguid:dxguid.obj
 0002:00002be8       _IID_IDirect3DRM2          10040be8     dxguid:dxguid.obj
 0002:00002bf8       _IID_IDirect3DRM           10040bf8     dxguid:dxguid.obj
 0002:00002c08       _IID_IDirect3DRMClippedVisual 10040c08     dxguid:dxguid.obj
 0002:00002c18       _IID_IDirect3DRMPicked2Array 10040c18     dxguid:dxguid.obj
 0002:00002c28       _IID_IDirect3DRMProgressiveMesh 10040c28     dxguid:dxguid.obj
 0002:00002c38       _IID_IDirect3DRMInterpolator 10040c38     dxguid:dxguid.obj
 0002:00002c48       _IID_IDirect3DRMShadow2    10040c48     dxguid:dxguid.obj
 0002:00002c58       _IID_IDirect3DRMShadow     10040c58     dxguid:dxguid.obj
 0002:00002c68       _IID_IDirect3DRMUserVisual 10040c68     dxguid:dxguid.obj
 0002:00002c78       _IID_IDirect3DRMAnimationArray 10040c78     dxguid:dxguid.obj
 0002:00002c88       _IID_IDirect3DRMFaceArray  10040c88     dxguid:dxguid.obj
 0002:00002c98       _IID_IDirect3DRMPickedArray 10040c98     dxguid:dxguid.obj
 0002:00002ca8       _IID_IDirect3DRMLightArray 10040ca8     dxguid:dxguid.obj
 0002:00002cb8       _IID_IDirect3DRMVisualArray 10040cb8     dxguid:dxguid.obj
 0002:00002cc8       _IID_IDirect3DRMFrameArray 10040cc8     dxguid:dxguid.obj
 0002:00002cd8       _IID_IDirect3DRMViewportArray 10040cd8     dxguid:dxguid.obj
 0002:00002ce8       _IID_IDirect3DRMDeviceArray 10040ce8     dxguid:dxguid.obj
 0002:00002cf8       _IID_IDirect3DRMObjectArray 10040cf8     dxguid:dxguid.obj
 0002:00002d08       _IID_IDirect3DRMAnimationSet2 10040d08     dxguid:dxguid.obj
 0002:00002d18       _IID_IDirect3DRMAnimationSet 10040d18     dxguid:dxguid.obj
 0002:00002d28       _IID_IDirect3DRMAnimation2 10040d28     dxguid:dxguid.obj
 0002:00002d38       _IID_IDirect3DRMAnimation  10040d38     dxguid:dxguid.obj
 0002:00002d48       _IID_IDirect3DRMMaterial2  10040d48     dxguid:dxguid.obj
 0002:00002d58       _IID_IDirect3DRMMaterial   10040d58     dxguid:dxguid.obj
 0002:00002d68       _IID_IDirect3DRMWrap       10040d68     dxguid:dxguid.obj
 0002:00002d78       _IID_IDirect3DRMTexture3   10040d78     dxguid:dxguid.obj
 0002:00002d88       _IID_IDirect3DRMTexture2   10040d88     dxguid:dxguid.obj
 0002:00002d98       _IID_IDirect3DRMTexture    10040d98     dxguid:dxguid.obj
 0002:00002da8       _IID_IDirect3DRMLight      10040da8     dxguid:dxguid.obj
 0002:00002db8       _IID_IDirect3DRMFace2      10040db8     dxguid:dxguid.obj
 0002:00002dc8       _IID_IDirect3DRMFace       10040dc8     dxguid:dxguid.obj
 0002:00002dd8       _IID_IDirect3DRMMeshBuilder3 10040dd8     dxguid:dxguid.obj
 0002:00002de8       _IID_IDirect3DRMMeshBuilder2 10040de8     dxguid:dxguid.obj
 0002:00002df8       _IID_IDirect3DRMMeshBuilder 10040df8     dxguid:dxguid.obj
 0002:00002e08       _IID_IDirect3DRMMesh       10040e08     dxguid:dxguid.obj
 0002:00002e18       _IID_IDirect3DRMVisual     10040e18     dxguid:dxguid.obj
 0002:00002e28       _IID_IDirect3DRMFrame3     10040e28     dxguid:dxguid.obj
 0002:00002e38       _IID_IDirect3DRMFrame2     10040e38     dxguid:dxguid.obj
 0002:00002e48       _IID_IDirect3DRMFrame      10040e48     dxguid:dxguid.obj
 0002:00002e58       _IID_IDirect3DRMViewport2  10040e58     dxguid:dxguid.obj
 0002:00002e68       _IID_IDirect3DRMViewport   10040e68     dxguid:dxguid.obj
 0002:00002e78       _IID_IDirect3DRMDevice3    10040e78     dxguid:dxguid.obj
 0002:00002e88       _IID_IDirect3DRMDevice2    10040e88     dxguid:dxguid.obj
 0002:00002e98       _IID_IDirect3DRMDevice     10040e98     dxguid:dxguid.obj
 0002:00002ea8       _IID_IDirect3DRMObject2    10040ea8     dxguid:dxguid.obj
 0002:00002eb8       _IID_IDirect3DRMObject     10040eb8     dxguid:dxguid.obj
 0002:00002ec8       _CLSID_CDirect3DRMClippedVisual 10040ec8     dxguid:dxguid.obj
 0002:00002ed8       _CLSID_CDirect3DRMProgressiveMesh 10040ed8     dxguid:dxguid.obj
 0002:00002ee8       _CLSID_CDirect3DRMTextureInterpolator 10040ee8     dxguid:dxguid.obj
 0002:00002ef8       _CLSID_CDirect3DRMMaterialInterpolator 10040ef8     dxguid:dxguid.obj
 0002:00002f08       _CLSID_CDirect3DRMLightInterpolator 10040f08     dxguid:dxguid.obj
 0002:00002f18       _CLSID_CDirect3DRMMeshInterpolator 10040f18     dxguid:dxguid.obj
 0002:00002f28       _CLSID_CDirect3DRMFrameInterpolator 10040f28     dxguid:dxguid.obj
 0002:00002f38       _CLSID_CDirect3DRMViewportInterpolator 10040f38     dxguid:dxguid.obj
 0002:00002f48       _CLSID_CDirect3DRMShadow   10040f48     dxguid:dxguid.obj
 0002:00002f58       _CLSID_CDirect3DRMUserVisual 10040f58     dxguid:dxguid.obj
 0002:00002f68       _CLSID_CDirect3DRMAnimationSet 10040f68     dxguid:dxguid.obj
 0002:00002f78       _CLSID_CDirect3DRMAnimation 10040f78     dxguid:dxguid.obj
 0002:00002f88       _CLSID_CDirect3DRMMaterial 10040f88     dxguid:dxguid.obj
 0002:00002f98       _CLSID_CDirect3DRMWrap     10040f98     dxguid:dxguid.obj
 0002:00002fa8       _CLSID_CDirect3DRMTexture  10040fa8     dxguid:dxguid.obj
 0002:00002fb8       _CLSID_CDirect3DRMLight    10040fb8     dxguid:dxguid.obj
 0002:00002fc8       _CLSID_CDirect3DRMFace     10040fc8     dxguid:dxguid.obj
 0002:00002fd8       _CLSID_CDirect3DRMMeshBuilder 10040fd8     dxguid:dxguid.obj
 0002:00002fe8       _CLSID_CDirect3DRMMesh     10040fe8     dxguid:dxguid.obj
 0002:00002ff8       _CLSID_CDirect3DRMFrame    10040ff8     dxguid:dxguid.obj
 0002:00003008       _CLSID_CDirect3DRMViewport 10041008     dxguid:dxguid.obj
 0002:00003018       _CLSID_CDirect3DRMDevice   10041018     dxguid:dxguid.obj
 0002:00003028       _IID_ID3DXAnimationController 10041028     dxguid:dxguid.obj
 0002:00003038       _IID_ID3DXAnimationMixer   10041038     dxguid:dxguid.obj
 0002:00003048       _IID_ID3DXAnimationSet     10041048     dxguid:dxguid.obj
 0002:00003058       _IID_ID3DXKeyFrameInterpolator 10041058     dxguid:dxguid.obj
 0002:00003068       _IID_ID3DXInterpolator     10041068     dxguid:dxguid.obj
 0002:00003078       _IID_ID3DXBuffer           10041078     dxguid:dxguid.obj
 0002:00003088       _IID_ID3DXEffect           10041088     dxguid:dxguid.obj
 0002:00003098       _IID_ID3DXTechnique        10041098     dxguid:dxguid.obj
 0002:000030a8       _IID_ID3DXMatrixStack      100410a8     dxguid:dxguid.obj
 0002:000030b8       _IID_ID3DXSkinMesh         100410b8     dxguid:dxguid.obj
 0002:000030c8       _IID_ID3DXSPMesh           100410c8     dxguid:dxguid.obj
 0002:000030d8       _IID_ID3DXPMesh            100410d8     dxguid:dxguid.obj
 0002:000030e8       _IID_ID3DXMesh             100410e8     dxguid:dxguid.obj
 0002:000030f8       _IID_ID3DXBaseMesh         100410f8     dxguid:dxguid.obj
 0002:00003108       _IID_IDirect3DSwapChain8   10041108     dxguid:dxguid.obj
 0002:00003118       _IID_IDirect3DVolume8      10041118     dxguid:dxguid.obj
 0002:00003128       _IID_IDirect3DSurface8     10041128     dxguid:dxguid.obj
 0002:00003138       _IID_IDirect3DIndexBuffer8 10041138     dxguid:dxguid.obj
 0002:00003148       _IID_IDirect3DVertexBuffer8 10041148     dxguid:dxguid.obj
 0002:00003158       _IID_IDirect3DVolumeTexture8 10041158     dxguid:dxguid.obj
 0002:00003168       _IID_IDirect3DCubeTexture8 10041168     dxguid:dxguid.obj
 0002:00003178       _IID_IDirect3DTexture8     10041178     dxguid:dxguid.obj
 0002:00003188       _IID_IDirect3DBaseTexture8 10041188     dxguid:dxguid.obj
 0002:00003198       _IID_IDirect3DResource8    10041198     dxguid:dxguid.obj
 0002:000031a8       _IID_IDirect3DDevice8      100411a8     dxguid:dxguid.obj
 0002:000031b8       _IID_IDirect3D8            100411b8     dxguid:dxguid.obj
 0002:000031c8       _IID_IDirect3DVertexBuffer7 100411c8     dxguid:dxguid.obj
 0002:000031d8       _IID_IDirect3DVertexBuffer 100411d8     dxguid:dxguid.obj
 0002:000031e8       _IID_IDirect3DViewport3    100411e8     dxguid:dxguid.obj
 0002:000031f8       _IID_IDirect3DViewport2    100411f8     dxguid:dxguid.obj
 0002:00003208       _IID_IDirect3DViewport     10041208     dxguid:dxguid.obj
 0002:00003218       _IID_IDirect3DExecuteBuffer 10041218     dxguid:dxguid.obj
 0002:00003228       _IID_IDirect3DMaterial3    10041228     dxguid:dxguid.obj
 0002:00003238       _IID_IDirect3DMaterial2    10041238     dxguid:dxguid.obj
 0002:00003248       _IID_IDirect3DMaterial     10041248     dxguid:dxguid.obj
 0002:00003258       _IID_IDirect3DLight        10041258     dxguid:dxguid.obj
 0002:00003268       _IID_IDirect3DTexture2     10041268     dxguid:dxguid.obj
 0002:00003278       _IID_IDirect3DTexture      10041278     dxguid:dxguid.obj
 0002:00003288       _IID_IDirect3DDevice7      10041288     dxguid:dxguid.obj
 0002:00003298       _IID_IDirect3DDevice3      10041298     dxguid:dxguid.obj
 0002:000032a8       _IID_IDirect3DDevice2      100412a8     dxguid:dxguid.obj
 0002:000032b8       _IID_IDirect3DDevice       100412b8     dxguid:dxguid.obj
 0002:000032c8       _IID_IDirect3DTnLHalDevice 100412c8     dxguid:dxguid.obj
 0002:000032d8       _IID_IDirect3DNullDevice   100412d8     dxguid:dxguid.obj
 0002:000032e8       _IID_IDirect3DRefDevice    100412e8     dxguid:dxguid.obj
 0002:000032f8       _IID_IDirect3DMMXDevice    100412f8     dxguid:dxguid.obj
 0002:00003308       _IID_IDirect3DHALDevice    10041308     dxguid:dxguid.obj
 0002:00003318       _IID_IDirect3DRGBDevice    10041318     dxguid:dxguid.obj
 0002:00003328       _IID_IDirect3DRampDevice   10041328     dxguid:dxguid.obj
 0002:00003338       _IID_IDirect3D7            10041338     dxguid:dxguid.obj
 0002:00003348       _IID_IDirect3D3            10041348     dxguid:dxguid.obj
 0002:00003358       _IID_IDirect3D2            10041358     dxguid:dxguid.obj
 0002:00003368       _IID_IDirect3D             10041368     dxguid:dxguid.obj
 0002:00003378       _DDVPTYPE_PHILIPS          10041378     dxguid:dxguid.obj
 0002:00003388       _DDVPTYPE_BROOKTREE        10041388     dxguid:dxguid.obj
 0002:00003398       _DDVPTYPE_CCIR656          10041398     dxguid:dxguid.obj
 0002:000033a8       _DDVPTYPE_E_HREFL_VREFL    100413a8     dxguid:dxguid.obj
 0002:000033b8       _DDVPTYPE_E_HREFL_VREFH    100413b8     dxguid:dxguid.obj
 0002:000033c8       _DDVPTYPE_E_HREFH_VREFL    100413c8     dxguid:dxguid.obj
 0002:000033d8       _DDVPTYPE_E_HREFH_VREFH    100413d8     dxguid:dxguid.obj
 0002:000033e8       _IID_IDirectDrawVideoPortNotify 100413e8     dxguid:dxguid.obj
 0002:000033f8       _IID_IDirectDrawVideoPort  100413f8     dxguid:dxguid.obj
 0002:00003408       _IID_IDDVideoPortContainer 10041408     dxguid:dxguid.obj
 0002:00003418       _GUID_DDMoreCaps           10041418     dxguid:dxguid.obj
 0002:00003428       _GUID_Miscellaneous2Callbacks 10041428     dxguid:dxguid.obj
 0002:00003438       _GUID_NTCallbacks          10041438     dxguid:dxguid.obj
 0002:00003448       _GUID_MotionCompCallbacks  10041448     dxguid:dxguid.obj
 0002:00003458       _GUID_D3DParseUnknownCommandCallback 10041458     dxguid:dxguid.obj
 0002:00003468       _GUID_UserModeDriverPassword 10041468     dxguid:dxguid.obj
 0002:00003478       _GUID_UserModeDriverInfo   10041478     dxguid:dxguid.obj
 0002:00003488       _GUID_OptSurfaceUmodeInfo  10041488     dxguid:dxguid.obj
 0002:00003498       _GUID_OptSurfaceKmodeInfo  10041498     dxguid:dxguid.obj
 0002:000034a8       _GUID_DDStereoMode         100414a8     dxguid:dxguid.obj
 0002:000034b8       _GUID_DDMoreSurfaceCaps    100414b8     dxguid:dxguid.obj
 0002:000034c8       _GUID_ZPixelFormats        100414c8     dxguid:dxguid.obj
 0002:000034d8       _GUID_D3DExtendedCaps      100414d8     dxguid:dxguid.obj
 0002:000034e8       _GUID_KernelCaps           100414e8     dxguid:dxguid.obj
 0002:000034f8       _GUID_KernelCallbacks      100414f8     dxguid:dxguid.obj
 0002:00003508       _GUID_NonLocalVidMemCaps   10041508     dxguid:dxguid.obj
 0002:00003518       _GUID_D3DCallbacks3        10041518     dxguid:dxguid.obj
 0002:00003528       _GUID_D3DCallbacks2        10041528     dxguid:dxguid.obj
 0002:00003538       _GUID_VideoPortCaps        10041538     dxguid:dxguid.obj
 0002:00003548       _GUID_ColorControlCallbacks 10041548     dxguid:dxguid.obj
 0002:00003558       _GUID_VideoPortCallbacks   10041558     dxguid:dxguid.obj
 0002:00003568       _GUID_MiscellaneousCallbacks 10041568     dxguid:dxguid.obj
 0002:00003578       _IID_IDirectDrawGammaControl 10041578     dxguid:dxguid.obj
 0002:00003588       _IID_IDirectDrawColorControl 10041588     dxguid:dxguid.obj
 0002:00003598       _IID_IDirectDrawClipper    10041598     dxguid:dxguid.obj
 0002:000035a8       _IID_IDirectDrawPalette    100415a8     dxguid:dxguid.obj
 0002:000035b8       _IID_IDirectDrawPalette2   100415b8     dxguid:dxguid.obj
 0002:000035c8       _IID_IDirectDrawOptSurface 100415c8     dxguid:dxguid.obj
 0002:000035d8       _GUID_DirectDrawPaletteStream 100415d8     dxguid:dxguid.obj
 0002:000035e8       _GUID_DirectDrawSurfaceStream 100415e8     dxguid:dxguid.obj
 0002:000035f8       _IID_IDirectDrawFactory2   100415f8     dxguid:dxguid.obj
 0002:00003608       _CLSID_DirectDrawFactory2  10041608     dxguid:dxguid.obj
 0002:00003618       _IID_IDirectDrawSurfaceNew 10041618     dxguid:dxguid.obj
 0002:00003628       _IID_IDirectDrawSurface7   10041628     dxguid:dxguid.obj
 0002:00003638       _IID_IDirectDrawSurface4   10041638     dxguid:dxguid.obj
 0002:00003648       _IID_IDirectDrawSurface3   10041648     dxguid:dxguid.obj
 0002:00003658       _IID_IDirectDrawSurface2   10041658     dxguid:dxguid.obj
 0002:00003668       _IID_IDirectDrawSurface    10041668     dxguid:dxguid.obj
 0002:00003678       _IID_IDirectDraw7          10041678     dxguid:dxguid.obj
 0002:00003688       _IID_IDirectDraw4          10041688     dxguid:dxguid.obj
 0002:00003698       _IID_IDirectDraw2          10041698     dxguid:dxguid.obj
 0002:000036a8       _IID_IDirectDraw           100416a8     dxguid:dxguid.obj
 0002:000036b8       _CLSID_DirectDrawClipper   100416b8     dxguid:dxguid.obj
 0002:000036c8       _CLSID_DirectDraw7         100416c8     dxguid:dxguid.obj
 0002:000036d8       _CLSID_DirectDraw          100416d8     dxguid:dxguid.obj
 0002:000038d4       _c_dfDIMouse               100418d4     dinput8:dilib1.obj
 0002:00003adc       _c_dfDIKeyboard            10041adc     dinput8:dilib2.obj
 0002:00003af8       __real@8@3fffe2d0e56041893800 10041af8     JpgLib:KJpegColor.obj
 0002:00003b00       __real@8@3ffeb6d1e108c3f3e000 10041b00     JpgLib:KJpegColor.obj
 0002:00003b08       __real@8@3ffdb0331e3a7daa5000 10041b08     JpgLib:KJpegColor.obj
 0002:00003b10       __real@8@3fff8000000000000000 10041b10     JpgLib:KJpegColor.obj
 0002:00003b18       __real@8@3fffb374bc6a7ef9d800 10041b18     JpgLib:KJpegColor.obj
 0002:00004078       __real@8@3ffe8000000000000000 10042078     mp3lib:KMp3Sbt.obj
 0002:00004080       __real@8@40018000000000000000 10042080     mp3lib:KMp3Sbt.obj
 0002:00004088       __real@8@3ffdaaaaab0000000000 10042088     mp3lib:KMp3Quant.obj
 0002:00004250       __real@8@c0008000000000000000 10042250     mp3lib:KMp3Init.obj
 0002:00004258       __real@8@3ffdaaaaaaaaaaaaa800 10042258     mp3lib:KMp3Init.obj
 0002:00004260       __real@8@bffe8000000000000000 10042260     mp3lib:KMp3Init.obj
 0002:00004268       __real@8@3ffd8000000000000000 10042268     mp3lib:KMp3Init.obj
 0002:00004270       __real@8@40008000000000000000 10042270     mp3lib:KMp3Init.obj
 0002:00004278       __real@8@4001c000000000000000 10042278     mp3lib:KMp3Init.obj
 0002:00004280       __real@8@3ffbaaaaaaaaaaaaa800 10042280     mp3lib:KMp3Init.obj
 0002:00004288       __real@8@40039000000000000000 10042288     mp3lib:KMp3Init.obj
 0002:00004290       __real@8@3ff9e38e38e38e38e000 10042290     mp3lib:KMp3Init.obj
 0002:00004298       __real@4@3ffe8000000000000000 10042298     mp3lib:KMp3Init.obj
 0002:000042a0       __real@8@3ffaaaaaaaaaaaaaa800 100422a0     mp3lib:KMp3Init.obj
 0002:000042a8       __real@8@3ff8e38e38e38e38e000 100422a8     mp3lib:KMp3Init.obj
 0002:000042b0       __real@8@bffd8000000000000000 100422b0     mp3lib:KMp3Init.obj
 0002:000055f8       __IMPORT_DESCRIPTOR_KERNEL32 100435f8     kernel32:KERNEL32.dll
 0002:0000560c       __IMPORT_DESCRIPTOR_USER32 1004360c     user32:USER32.dll
 0002:00005620       __IMPORT_DESCRIPTOR_GDI32  10043620     gdi32:GDI32.dll
 0002:00005634       __IMPORT_DESCRIPTOR_comdlg32 10043634     comdlg32:comdlg32.dll
 0002:00005648       __IMPORT_DESCRIPTOR_DDRAW  10043648     ddraw:DDRAW.dll
 0002:0000565c       __IMPORT_DESCRIPTOR_DSOUND 1004365c     dsound:DSOUND.dll
 0002:00005670       __IMPORT_DESCRIPTOR_WINMM  10043670     winmm:WINMM.dll
 0002:00005684       __IMPORT_DESCRIPTOR_WSOCK32 10043684     wsock32:WSOCK32.dll
 0002:00005698       __IMPORT_DESCRIPTOR_DINPUT8 10043698     dinput8:DINPUT8.dll
 0002:000056ac       __IMPORT_DESCRIPTOR_LuaLibDll 100436ac     LuaLibDll:LuaLibDll.dll
 0002:000056c0       __IMPORT_DESCRIPTOR_MSVCRT 100436c0     MSVCRT:MSVCRT.dll
 0002:000056d4       __IMPORT_DESCRIPTOR_IMM32  100436d4     imm32:IMM32.dll
 0002:000056e8       __NULL_IMPORT_DESCRIPTOR   100436e8     kernel32:KERNEL32.dll
 0003:00000000       ___xc_a                    10051000     MSVCRT:cinitexe.obj
 0003:00000018       ___xc_z                    10051018     MSVCRT:cinitexe.obj
 0003:0000001c       ___xi_a                    1005101c     MSVCRT:cinitexe.obj
 0003:00000020       ___xi_z                    10051020     MSVCRT:cinitexe.obj
 0003:00000030       ??_C@_04GCNL@AVI?5?$AA@    10051030     KAviFile.obj
 0003:00000038       ??_C@_04ILOB@RIFF?$AA@     10051038     KAviFile.obj
 0003:00000040       ??_C@_04FKAG@strf?$AA@     10051040     KAviFile.obj
 0003:00000048       ??_C@_04KDHI@auds?$AA@     10051048     KAviFile.obj
 0003:00000050       ??_C@_04PFGC@vids?$AA@     10051050     KAviFile.obj
 0003:00000058       ??_C@_04PBMM@strh?$AA@     10051058     KAviFile.obj
 0003:00000060       ??_C@_04IPCN@idx1?$AA@     10051060     KAviFile.obj
 0003:00000068       ??_C@_04OGEI@movi?$AA@     10051068     KAviFile.obj
 0003:00000070       ??_C@_04GKLN@hdrl?$AA@     10051070     KAviFile.obj
 0003:00000078       ??_C@_04PBEL@LIST?$AA@     10051078     KAviFile.obj
 0003:00000080       ??_C@_04BKB@BM08?$AA@      10051080     KBitmap.obj
 0003:00000088       ??_C@_04LMMB@BM16?$AA@     10051088     KBitmap16.obj
 0003:00000090       ?g_RGB@@3P6AGHHH@ZA        10051090     KColors.obj
 0003:00000094       ??_C@_0CE@GMLM@DirectDraw?5?3?5CreateClipper?$CI?$CJ?5Fai@ 10051094     KDDraw.obj
 0003:000000b8       ??_C@_0CF@GJMH@DirectDraw?5?3?5GetSurfaceDesc?$CI?$CJ?5Fa@ 100510b8     KDDraw.obj
 0003:000000e0       ??_C@_0CE@EOE@DirectDraw?5?3?5CreateSurface?$CI?$CJ?5Fai@ 100510e0     KDDraw.obj
 0003:00000104       ??_C@_0CF@MDEP@DirectDraw?5?3?5GetDisplayMode?$CI?$CJ?5Fa@ 10051104     KDDraw.obj
 0003:0000012c       ??_C@_0CF@HBIM@DirectDraw?5?3?5SetDisplayMode?$CI?$CJ?5Fa@ 1005112c     KDDraw.obj
 0003:00000154       ??_C@_0CH@MDDP@DirectDraw?5?3?5CreateDirectDraw?$CI?$CJ?5@ 10051154     KDDraw.obj
 0003:0000017c       ??_C@_0BD@HPON@Screen?5BPP?5?5?5?5?$DN?5?$CFd?$AA@ 1005117c     KDDraw.obj
 0003:00000190       ??_C@_0BD@LBIG@Screen?5Height?5?$DN?5?$CFd?$AA@ 10051190     KDDraw.obj
 0003:000001a4       ??_C@_0BD@HOII@Screen?5Width?5?5?$DN?5?$CFd?$AA@ 100511a4     KDDraw.obj
 0003:000001b8       ??_C@_0BG@BPPJ@g_SetDisplayMode?$CI?$CJ?4?4?4?$AA@ 100511b8     KDDraw.obj
 0003:000001d0       ??_C@_0BD@LFIF@Screen?5Pitch?5?5?$DN?5?$CFd?$AA@ 100511d0     KDDraw.obj
 0003:000001e4       ??_C@_0BG@GPB@g_GetDisplayMode?$CI?$CJ?4?4?4?$AA@ 100511e4     KDDraw.obj
 0003:000001fc       ??_C@_0BF@EEOG@RGB?5Bit?5Mask32?5?5?$DN?5?$CFx?$AA@ 100511fc     KDDraw.obj
 0003:00000214       ??_C@_0BF@GOON@RGB?5Bit?5Mask16?5?5?$DN?5?$CFx?$AA@ 10051214     KDDraw.obj
 0003:0000022c       ??_C@_0BF@JHPP@RGB?5Bit?5Count?5?5?5?$DN?5?$CFd?$AA@ 1005122c     KDDraw.obj
 0003:00000244       ??_C@_0BF@CPMF@Surface?5Picth?5?5?5?$DN?5?$CFd?$AA@ 10051244     KDDraw.obj
 0003:0000025c       ??_C@_0BF@JFNA@Surface?5Height?5?5?$DN?5?$CFd?$AA@ 1005125c     KDDraw.obj
 0003:00000274       ??_C@_0BF@IBBP@Surface?5Width?5?5?5?$DN?5?$CFd?$AA@ 10051274     KDDraw.obj
 0003:0000028c       ??_C@_0BG@BKJF@g_GetSurfaceDesc?$CI?$CJ?4?4?4?$AA@ 1005128c     KDDraw.obj
 0003:000002a4       ??_C@_0BP@ICDI@Assert?5failed?5in?5?$CFs?0?5line?5?$DN?5?$CFi?$AA@ 100512a4     KDebug.obj
 0003:000004d0       ??_C@_0BC@DPMB@DIERR_UNSUPPORTED?$AA@ 100514d0     KDError.obj
 0003:000004e4       ??_C@_0BC@FHGE@DIERR_OUTOFMEMORY?$AA@ 100514e4     KDError.obj
 0003:000004f8       ??_C@_0BM@EJFG@DIERR_OLDDIRECTINPUTVERSION?$AA@ 100514f8     KDError.obj
 0003:00000514       ??_C@_0BF@EBIC@DIERR_NOTINITIALIZED?$AA@ 10051514     KDError.obj
 0003:0000052c       ??_C@_0P@IADK@DIERR_NOTFOUND?$AA@ 1005152c     KDError.obj
 0003:0000053c       ??_C@_0BL@DCNG@DIERR_NOTEXCLUSIVEACQUIRED?$AA@ 1005153c     KDError.obj
 0003:00000558       ??_C@_0BE@KHKJ@DIERR_NOTDOWNLOADED?$AA@ 10051558     KDError.obj
 0003:0000056c       ??_C@_0BC@BHCP@DIERR_NOTBUFFERED?$AA@ 1005156c     KDError.obj
 0003:00000580       ??_C@_0BC@COPL@DIERR_NOTACQUIRED?$AA@ 10051580     KDError.obj
 0003:00000594       ??_C@_0BC@PMDA@DIERR_NOINTERFACE?$AA@ 10051594     KDError.obj
 0003:000005a8       ??_C@_0BE@IGCE@DIERR_NOAGGREGATION?$AA@ 100515a8     KDError.obj
 0003:000005bc       ??_C@_0P@BLND@DIERR_MOREDATA?$AA@ 100515bc     KDError.obj
 0003:000005cc       ??_C@_0BD@JHGN@DIERR_INVALIDPARAM?$AA@ 100515cc     KDError.obj
 0003:000005e0       ??_C@_0BA@LEBH@DIERR_INPUTLOST?$AA@ 100515e0     KDError.obj
 0003:000005f0       ??_C@_0BH@MDNO@DIERR_INCOMPLETEEFFECT?$AA@ 100515f0     KDError.obj
 0003:00000608       ??_C@_0BD@HEOM@DIERR_HANDLEEXISTS?$AA@ 10051608     KDError.obj
 0003:0000061c       ??_C@_0O@CMBC@DIERR_GENERIC?$AA@ 1005161c     KDError.obj
 0003:0000062c       ??_C@_0BB@HLJD@DIERR_HASEFFECTS?$AA@ 1005162c     KDError.obj
 0003:00000640       ??_C@_0BE@NDNI@DIERR_EFFECTPLAYING?$AA@ 10051640     KDError.obj
 0003:00000654       ??_C@_0BD@HHFD@DIERR_DEVICENOTREG?$AA@ 10051654     KDError.obj
 0003:00000668       ??_C@_0BB@GDLD@DIERR_DEVICEFULL?$AA@ 10051668     KDError.obj
 0003:0000067c       ??_C@_0BN@NAPF@DIERR_BETADIRECTINPUTVERSION?$AA@ 1005167c     KDError.obj
 0003:0000069c       ??_C@_0BD@HMI@DIERR_BADDRIVERVER?$AA@ 1005169c     KDError.obj
 0003:000006b0       ??_C@_0BJ@FDKA@DIERR_ALREADYINITIALIZED?$AA@ 100516b0     KDError.obj
 0003:000006cc       ??_C@_0P@DJEA@DIERR_ACQUIRED?$AA@ 100516cc     KDError.obj
 0003:000006dc       ??_C@_0BC@GOHL@DSERR_UNSUPPORTED?$AA@ 100516dc     KDError.obj
 0003:000006f0       ??_C@_0BE@MHLG@DSERR_UNINITIALIZED?$AA@ 100516f0     KDError.obj
 0003:00000704       ??_C@_0BG@MDBD@DSERR_PRIOLEVELNEEDED?$AA@ 10051704     KDError.obj
 0003:0000071c       ??_C@_0BC@GNO@DSERR_OUTOFMEMORY?$AA@ 1005171c     KDError.obj
 0003:00000730       ??_C@_0BG@BPHM@DSERR_OTHERAPPHASPRIO?$AA@ 10051730     KDError.obj
 0003:00000748       ??_C@_0BC@KNIK@DSERR_NOINTERFACE?$AA@ 10051748     KDError.obj
 0003:0000075c       ??_C@_0P@JGOM@DSERR_NODRIVER?$AA@ 1005175c     KDError.obj
 0003:0000076c       ??_C@_0BE@FNCP@DSERR_NOAGGREGATION?$AA@ 1005176c     KDError.obj
 0003:00000780       ??_C@_0BD@JMDM@DSERR_INVALIDPARAM?$AA@ 10051780     KDError.obj
 0003:00000794       ??_C@_0BC@EJKJ@DSERR_INVALIDCALL?$AA@ 10051794     KDError.obj
 0003:000007a8       ??_C@_0O@EGDL@DSERR_GENERIC?$AA@ 100517a8     KDError.obj
 0003:000007b8       ??_C@_0BF@JADI@DSERR_CONTROLUNAVAIL?$AA@ 100517b8     KDError.obj
 0003:000007d0       ??_C@_0BB@MLJO@DSERR_BUFFERLOST?$AA@ 100517d0     KDError.obj
 0003:000007e4       ??_C@_0BA@JHO@DSERR_BADFORMAT?$AA@ 100517e4     KDError.obj
 0003:000007f4       ??_C@_0BJ@LHGI@DSERR_ALREADYINITIALIZED?$AA@ 100517f4     KDError.obj
 0003:00000810       ??_C@_0BA@IBDB@DSERR_ALLOCATED?$AA@ 10051810     KDError.obj
 0003:00000820       ??_C@_0BC@JHBM@DDERR_UNSUPPORTED?$AA@ 10051820     KDError.obj
 0003:00000834       ??_C@_0BC@OHLB@DDERR_SURFACEBUSY?$AA@ 10051834     KDError.obj
 0003:00000848       ??_C@_0CC@GOKD@DDERR_PRIMARYSURFACEALREADYEXIST@ 10051848     KDError.obj
 0003:0000086c       ??_C@_0BH@GLCM@DDERR_OUTOFVIDEOMEMORY?$AA@ 1005186c     KDError.obj
 0003:00000884       ??_C@_0BC@PPLJ@DDERR_OUTOFMEMORY?$AA@ 10051884     KDError.obj
 0003:00000898       ??_C@_0BC@IPJO@DDERR_NOZBUFFERHW?$AA@ 10051898     KDError.obj
 0003:000008ac       ??_C@_0BC@JFFJ@DDERR_NOOVERLAYHW?$AA@ 100518ac     KDError.obj
 0003:000008c0       ??_C@_0BB@PNI@DDERR_NOMIPMAPHW?$AA@ 100518c0     KDError.obj
 0003:000008d4       ??_C@_0P@MLDL@DDERR_NOFLIPHW?$AA@ 100518d4     KDError.obj
 0003:000008e4       ??_C@_0BG@GHJG@DDERR_NOEXCLUSIVEMODE?$AA@ 100518e4     KDError.obj
 0003:000008fc       ??_C@_0BC@KIDO@DDERR_NOEMULATION?$AA@ 100518fc     KDError.obj
 0003:00000910       ??_C@_0BF@LDPJ@DDERR_NODIRECTDRAWHW?$AA@ 10051910     KDError.obj
 0003:00000928       ??_C@_0BM@INCD@DDERR_NOCOOPERATIVELEVELSET?$AA@ 10051928     KDError.obj
 0003:00000944       ??_C@_0BA@EHJG@DDERR_NOALPHAHW?$AA@ 10051944     KDError.obj
 0003:00000954       ??_C@_0BF@IFLE@DDERR_LOCKEDSURFACES?$AA@ 10051954     KDError.obj
 0003:0000096c       ??_C@_0BE@OBBL@DDERR_INVALIDPARAMS?$AA@ 1005196c     KDError.obj
 0003:00000980       ??_C@_0BE@LOLC@DDERR_INVALIDOBJECT?$AA@ 10051980     KDError.obj
 0003:00000994       ??_C@_0BJ@EJCO@DDERR_INVALIDPIXELFORMAT?$AA@ 10051994     KDError.obj
 0003:000009b0       ??_C@_0BC@JNLE@DDERR_INVALIDCAPS?$AA@ 100519b0     KDError.obj
 0003:000009c4       ??_C@_0BC@HCAL@DDERR_INVALIDMODE?$AA@ 100519c4     KDError.obj
 0003:000009d8       ??_C@_0BM@OPAM@DDERR_INVALIDDIRECTDRAWGUID?$AA@ 100519d8     KDError.obj
 0003:000009f4       ??_C@_0BK@BLOA@DDERR_INCOMPATIBLEPRIMARY?$AA@ 100519f4     KDError.obj
 0003:00000a10       ??_C@_0O@JJAG@DDERR_GENERIC?$AA@ 10051a10     KDError.obj
 0003:00000a20       ??_C@_0BP@HCLN@DDERR_DIRECTDRAWALREADYCREATED?$AA@ 10051a20     KDError.obj
 0003:00000a40       ??_C@_0BM@JEA@Unknown?5DirectDraw?5Errors?5?$CB?$AA@ 10051a40     KDError.obj
 0003:00000a5c       ??_C@_0BN@EAFK@Unknown?5DirectSound?5Errors?5?$CB?$AA@ 10051a5c     KDError.obj
 0003:00000a7c       ??_C@_0BN@LDHO@Unknown?5DirectInput?5Errors?5?$CB?$AA@ 10051a7c     KDError.obj
 0003:00000a9c       ??_C@_0BE@EDGB@DirectInput?5init?5ok?$AA@ 10051a9c     KDInput.obj
 0003:00000ab0       ??_C@_0CM@FBOH@DirectInput?5?3?5CreateKeyboardDevi@ 10051ab0     KDInput.obj
 0003:00000adc       ??_C@_0CJ@DBMC@DirectInput?5?3?5CreateMouseDevice?$CI@ 10051adc     KDInput.obj
 0003:00000b08       ??_C@_0CJ@LAGL@DirectInput?5?3?5DirectInputCreate?$CI@ 10051b08     KDInput.obj
 0003:00000b34       ??_C@_0BH@NNBB@DirectInput?5release?5ok?$AA@ 10051b34     KDInput.obj
 0003:00000b4c       ??_C@_0BE@GHKD@DirectSound?5init?5ok?$AA@ 10051b4c     KDSound.obj
 0003:00000b60       ??_C@_0BH@NPLA@DirectSound?5release?5ok?$AA@ 10051b60     KDSound.obj
 0003:00000b78       ??_C@_0CM@PFGB@DirectSound?5?3?5SetCooperativeLeve@ 10051b78     KDSound.obj
 0003:00000ba4       ??_C@_0CK@LAEM@DirectSound?5?3?5DirectSoundCreate?$CI@ 10051ba4     KDSound.obj
 0003:00000bd0       ??_C@_0DF@KJOF@DirectSound?5?3?5Set?5Primary?5Sound?5@ 10051bd0     KDSound.obj
 0003:00000c08       ??_C@_0DB@INAB@DirectSound?5?3?5Create?5Primary?5Sou@ 10051c08     KDSound.obj
 0003:00000c3c       ??_C@_0CA@GMNI@There?5are?5errors?5in?5Eiclib?4dll?$CB?$AA@ 10051c3c     KEicScript.obj
 0003:00000c5c       ??_C@_0BE@IKNM@Eiclib?4dll?5load?5Ok?$CB?$AA@ 10051c5c     KEicScript.obj
 0003:00000c70       ??_C@_0M@FGIE@EiC_stdCLib?$AA@ 10051c70     KEicScript.obj
 0003:00000c7c       ??_C@_07KKDK@EiC_run?$AA@  10051c7c     KEicScript.obj
 0003:00000c84       ??_C@_0N@CHFB@EiC_init_EiC?$AA@ 10051c84     KEicScript.obj
 0003:00000c94       ??_C@_0BH@JNAK@Can?8t?5load?5Eiclib?4dll?$CB?$AA@ 10051c94     KEicScript.obj
 0003:00000cac       ??_C@_0M@MJLH@?2eiclib?4dll?$AA@ 10051cac     KEicScript.obj
 0003:00000cb8       ??_C@_09BFJI@TMainForm?$AA@ 10051cb8     KEngine.obj
 0003:00000cc4       ??_C@_07KEHN@MyDebug?$AA@  10051cc4     KEngine.obj
 0003:00000ccc       ??_C@_0CI@IGEP@KEvent?3?3KEvent?$CI?$CJ?3?5CreateEvent?$CI?$CJ?5@ 10051ccc     KEvent.obj
 0003:00000cf4       ??_C@_03DCMC@?$CK?4?$CK?$AA@ 10051cf4     KFileCopy.obj
 0003:00000f00       ??_C@_04GFMG@?2?4?4?2?$AA@ 10051f00     KFilePath.obj
 0003:00000f08       ??_C@_03JJIC@?2?4?2?$AA@   10051f08     KFilePath.obj
 0003:00000f0c       ??_C@_0O@EC@RootPath?5?$DN?5?$CFs?$AA@ 10051f0c     KFilePath.obj
 0003:00000f1c       ??_C@_01PCFE@?2?$AA@       10051f1c     KFilePath.obj
 0003:00000f20       ??_C@_02GLFM@C?3?$AA@      10051f20     KFilePath.obj
 0003:00000f24       ??_C@_01PJCK@?4?$AA@       10051f24     KFilePath.obj
 0003:00000f28       ??_C@_03HGPN@ASF?$AA@      10051f28     KFont.obj
 0003:00000f2c       ??_C@_0BD@LOPD@KFont?3?3Load?$CI?$CFs?$CJ?4?4?4?$AA@ 10051f2c     KFont.obj
 0003:00000f40       ??_C@_0BD@KKBF@KFont?3?3Save?$CI?$CFs?$CJ?4?4?4?$AA@ 10051f40     KFont.obj
 0003:00000f54       ??_C@_0CI@MOPC@KFont?3?3AddWord?$CI?$CJ?5Failed?5?3?5Size?5o@ 10051f54     KFont.obj
 0003:00000f7c       ??_C@_03LCLI@89a?$AA@      10051f7c     KGifFile.obj
 0003:00000f80       ??_C@_03HABD@87a?$AA@      10051f80     KGifFile.obj
 0003:00000f84       ??_C@_03GICC@GIF?$AA@      10051f84     KGifFile.obj
 0003:00000f88       ??_C@_0BJ@JEIG@Can?8t?5open?5ini?5file?5?3?5?$CFs?$AA@ 10051f88     KIniFile.obj
 0003:00000fa4       ??_C@_0BK@JNAL@Ini?5file?5unpack?5fail?5?3?5?$CFs?$AA@ 10051fa4     KIniFile.obj
 0003:00000fc0       ??_C@_02PIMC@?$AN?6?$AA@   10051fc0     KIniFile.obj
 0003:00000fc4       ??_C@_08OIHP@?$CFs?$CFc?$CFs?$AN?6?$AA@ 10051fc4     KIniFile.obj
 0003:00000fd0       ??_C@_04PCLE@?$CFs?$AN?6?$AA@ 10051fd0     KIniFile.obj
 0003:00000fd8       ??_C@_06PDH@?$FLMAIN?$FN?$AA@ 10051fd8     KIniFile.obj
 0003:00000fe0       ??_C@_01FIMD@?$FN?$AA@     10051fe0     KIniFile.obj
 0003:00000fe4       ??_C@_01KHLB@?$FL?$AA@     10051fe4     KIniFile.obj
 0003:00000fe8       ??_C@_02MECO@?$CFd?$AA@    10051fe8     KIniFile.obj
 0003:00000fec       ??_C@_05BBIB@?$CFd?0?$CFd?$AA@ 10051fec     KIniFile.obj
 0003:00000ff4       ??_C@_02JBAA@?$CFf?$AA@    10051ff4     KIniFile.obj
 0003:00000ff8       ??_C@_05OAL@?$CFf?0?$CFf?$AA@ 10051ff8     KIniFile.obj
 0003:00001000       ??_C@_04OBKB@?$CF02x?$AA@  10052000     KIniFile.obj
 0003:00001008       ??_C@_0M@IKDG@?$CFd?0?$CFd?0?$CFd?0?$CFd?$AA@ 10052008     KIniFile.obj
 0003:00001014       ??_C@_08LMGJ@?$CFf?0?$CFf?0?$CFf?$AA@ 10052014     KIniFile.obj
 0003:00001020       ??_C@_0M@NHBD@?$CFf?0?$CFf?0?$CFf?0?$CFf?$AA@ 10052020     KIniFile.obj
 0003:0000102c       ??_C@_0BM@KKII@?$FLerror?$FNNode?3?$CFd?5Remove?5twice?$AA@ 1005202c     KLinkArray.obj
 0003:00001048       ??_C@_0BM@BFLK@?$FLerror?$FNNode?3?$CFd?5Insert?5twice?$AA@ 10052048     KLinkArray.obj
 0003:00001064       ??_C@_0BK@EJAA@Load?5Script?5?$CFs?5Mistake?$CB?$CB?6?$AA@ 10052064     KLuaScript.obj
 0003:00001080       ??_C@_04HBMH@main?$AA@     10052080     KLuaScript.obj
 0003:00001088       ??_C@_0BH@COBN@ScriptError?5?$CFd?4?5?$CI?$CFs?$CJ?5?6?$AA@ 10052088     KLuaScript.obj
 0003:000010a0       ??_C@_0BL@FLOM@ScriptError?5?$CFd?3?$FL?$CFd?$FN?5?$CI?$CFs?$CJ?5?6?$AA@ 100520a0     KLuaScript.obj
 0003:000010bc       ??_C@_04IIAH@else?$AA@     100520bc     KLubCmpl_Blocker.obj
 0003:000010c4       ??_C@_06FOBE@elseif?$AA@   100520c4     KLubCmpl_Blocker.obj
 0003:000010cc       ??_C@_03DNBD@end?$AA@      100520cc     KLubCmpl_Blocker.obj
 0003:000010d0       ??_C@_02NEFL@if?$AA@       100520d0     KLubCmpl_Blocker.obj
 0003:000010d4       ??_C@_0DG@HLFO@?$CFs?5Goto?$CI?$CCAutoLabel?$CFd?$CC?$CJ?5else?5Goto@ 100520d4     KLubCmpl_Blocker.obj
 0003:0000110c       ??_C@_0BI@IIEP@Goto?$CI?$CCReturnLabel?$CFd?$CC?$CJ?$DL?6?$AA@ 1005210c     KLubCmpl_Blocker.obj
 0003:00001124       ??_C@_0BN@HNAA@?$CFs?5Goto?$CI?$CCAutoLabel?$CFd?$CC?$CJ?5end?$DL?6?$AA@ 10052124     KLubCmpl_Blocker.obj
 0003:00001144       ??_C@_0BI@EEOH@?6Label?$CI?$CCAutoLabel?$CFd?$CC?$CJ?$DL?6?$AA@ 10052144     KLubCmpl_Blocker.obj
 0003:0000115c       ??_C@_0BK@KCDK@?6Label?$CI?$CCReturnLabel?$CFd?$CC?$CJ?$DL?6?$AA@ 1005215c     KLubCmpl_Blocker.obj
 0003:00001178       ??_C@_0L@GAAN@end?$DL?9?9main?$AA@ 10052178     KLubCmpl_Blocker.obj
 0003:00001184       ??_C@_0BA@BJAD@function?5main?$CI?$CJ?$AA@ 10052184     KLubCmpl_Blocker.obj
 0003:00001194       ??_C@_0BJ@BIMC@Can?8t?5open?5tab?5file?5?3?5?$CFs?$AA@ 10052194     KLubCmpl_Blocker.obj
 0003:000011b0       ??_C@_0N@JFND@Push?5?$CI?$CFd?$CJ?5?$CFs?$AA@ 100521b0     KLubCmpl_Blocker.obj
 0003:000011c0       ??_C@_0N@KMEC@Pop?5?5?$CI?$CFd?$CJ?5?$CFs?$AA@ 100521c0     KLubCmpl_Blocker.obj
 0003:000011d0       ??_C@_0CD@EDKE@?6?9?9?9?9?9?9?9?9?9?9?9?9?9?9?9END?9?9?9?9?9?9?9?9?9?9?9?9?9@ 100521d0     KLubCmpl_Blocker.obj
 0003:000011f4       ??_C@_02DILL@?$CFs?$AA@    100521f4     KLubCmpl_Blocker.obj
 0003:000011f8       ??_C@_0CF@HAJE@?6?9?9?9?9?9?9?9?9?9?9?9?9?9?9?9BEGIN?9?9?9?9?9?9?9?9?9?9?9@ 100521f8     KLubCmpl_Blocker.obj
 0003:00001220       ??_C@_0CD@NAH@KMemList?3?3Leak?5Detected?0?5Size?5?$DN?5@ 10052220     KMemBase.obj
 0003:00001244       ??_C@_0CA@DLDB@?$CFd?5percent?5of?5memory?5is?5in?5use?4?$AA@ 10052244     KMemBase.obj
 0003:00001264       ??_C@_0BN@FODE@Total?5Virtual?5Memory?5?$DN?5?$CFd?5MB?$AA@ 10052264     KMemBase.obj
 0003:00001284       ??_C@_0BO@FMGP@Total?5Physical?5Memory?5?$DN?5?$CFd?5MB?$AA@ 10052284     KMemBase.obj
 0003:000012a4       ??_C@_0BP@IGHJ@g_MemAlloc?$CI?$CJ?5Failed?0?5Size?5?$DN?5?$CFd?$AA@ 100522a4     KMemBase.obj
 0003:000012c4       ??_C@_0BO@GGOM@g_MemFree?$CI?$CJ?5Failed?0?5Size?5?$DN?5?$CFd?$AA@ 100522c4     KMemBase.obj
 0003:000012e4       ??_C@_0CG@PFAC@KMemManager?3?3Leak?5Detected?0?5Size@ 100522e4     KMemManager.obj
 0003:0000130c       ??_C@_0BN@DDNO@Memory?5Corrupted?5?3?5Size?5?$DN?5?$CFd?$AA@ 1005230c     KMemManager.obj
 0003:0000132c       ??_C@_0CA@EONL@KMemManager?3?3Free?$CIp?$CJ?$DL?5p?5?$DN?5NULL?$CB?$AA@ 1005232c     KMemManager.obj
 0003:0000134c       ??_C@_0BM@FGOO@KMemStack?5?3?5Chunk?5over?5flow?$AA@ 1005234c     KMemStack.obj
 0003:0000136c       ??_C@_0CA@KFJB@KMp3Music?3?5mp3?5decode?5init?5fail?$AA@ 1005236c     KMp3Music.obj
 0003:0000138c       ??_C@_0CA@NAHB@KMp3Music?3?5mp3?5decode?5head?5fail?$AA@ 1005238c     KMp3Music.obj
 0003:000013ac       ??_C@_0CA@BCFE@KMp3Music?3?5bad?5sync?5in?5mp3?5file?$AA@ 100523ac     KMp3Music.obj
 0003:000013cc       ??_C@_0CE@GBGK@KMp4Video?3?5MPEG?94?5decoder?5init?5f@ 100523cc     KMp4Video.obj
 0003:000013f0       ??_C@_04GJDP@DIVX?$AA@     100523f0     KMp4Video.obj
 0003:000013f8       ??_C@_0CM@PAFF@KMp4Video?3?5Not?5a?5MPEG?94?5compress@ 100523f8     KMp4Video.obj
 0003:00001424       ??_C@_04GBK@divx?$AA@      10052424     KMp4Video.obj
 0003:0000142c       ??_C@_0BE@NLFD@mp4lib?4dll?5load?5Ok?$CB?$AA@ 1005242c     KMp4Video.obj
 0003:00001440       ??_C@_0CA@JNNL@There?5are?5errors?5in?5mp4lib?4dll?$CB?$AA@ 10052440     KMp4Video.obj
 0003:00001460       ??_C@_06BALJ@decore?$AA@   10052460     KMp4Video.obj
 0003:00001468       ??_C@_0BH@GMAJ@Can?8t?5load?5mp4lib?4dll?$CB?$AA@ 10052468     KMp4Video.obj
 0003:00001480       ??_C@_0M@DCKL@?2mp4lib?4dll?$AA@ 10052480     KMp4Video.obj
 0003:0000148c       ??_C@_0CA@EAPP@KMpgMusic?3?5mp3?5decode?5head?5fail?$AA@ 1005248c     KMpgMusic.obj
 0003:000014ac       ??_C@_0CA@DMHC@There?5are?5errors?5in?5Mpglib?4dll?$CB?$AA@ 100524ac     KMpgMusic.obj
 0003:000014cc       ??_C@_0BE@EPOD@Mpglib?4dll?5load?5Ok?$CB?$AA@ 100524cc     KMpgMusic.obj
 0003:000014e0       ??_C@_0BA@KGKK@mp3_decode_data?$AA@ 100524e0     KMpgMusic.obj
 0003:000014f0       ??_C@_0BA@HHEK@mp3_decode_head?$AA@ 100524f0     KMpgMusic.obj
 0003:00001500       ??_C@_0BA@CILC@mp3_decode_init?$AA@ 10052500     KMpgMusic.obj
 0003:00001510       ??_C@_0BH@JMFI@Can?8t?5load?5mpglib?4dll?$CB?$AA@ 10052510     KMpgMusic.obj
 0003:00001528       ??_C@_0M@GDJE@?2mpglib?4dll?$AA@ 10052528     KMpgMusic.obj
 0003:00001534       ??_C@_0CA@ICNK@KMpgMusic?3?5bad?5sync?5in?5mp3?5file?$AA@ 10052534     KMpgMusic.obj
 0003:00001554       ??_C@_0CH@GHKG@KWavMusic?5?3?5Create?5sound?5buffer?5@ 10052554     KMusic.obj
 0003:0000157c       ??_C@_0BN@NBJE@KMusic?5?3?5Create?5event?5failed?$AA@ 1005257c     KMusic.obj
 0003:0000159c       ??_C@_0CL@CDDC@KMusic?5?3?5Set?5notification?5positi@ 1005259c     KMusic.obj
 0003:000015c8       ??_C@_0BP@CGNP@KMusic?5?3?5QueryInterface?5failed?$AA@ 100525c8     KMusic.obj
 0003:000015e8       ??_C@_0CI@JIIC@KNetClient?3?3Open?$CI?$CJ?3?5WSAStartup?$CI?$CJ@ 100525e8     KNetClient.obj
 0003:00001610       ??_C@_0BM@PGHJ@KNetClient?$CI?$CJ?3?5unknown?5host?$CB?$AA@ 10052610     KNetClient.obj
 0003:0000162c       ??_C@_0CN@ICDG@KNetClient?$CI?$CJ?3?5portname?5broken?5or@ 1005262c     KNetClient.obj
 0003:0000165c       ??_C@_0CK@NKHI@KNetClient?$CI?$CJ?3?5hostname?5broken?5be@ 1005265c     KNetClient.obj
 0003:00001688       ??_C@_09FBHK@localhost?$AA@ 10052688     KNetClient.obj
 0003:00001694       ??_C@_0CI@NCCA@KNetClient?3?3Connect?$CI?$CJ?3?5wrong?5por@ 10052694     KNetClient.obj
 0003:000016bc       ??_C@_0DA@ELPH@KNetClient?3?3Connect?$CI?$CJ?3?5could?5not@ 100526bc     KNetClient.obj
 0003:000016ec       ??_C@_0CA@BKFE@WSAAsyncSelect?5failed?5on?5socket?$AA@ 100526ec     KNetClient.obj
 0003:0000170c       ??_C@_0BI@LELD@KNetClient?3?5connected?4?6?$AA@ 1005270c     KNetClient.obj
 0003:00001724       ??_C@_0CG@MKDP@KNetClient?3?5trying?5?$CFs?3?$CFs?0?5port?5?$CF@ 10052724     KNetClient.obj
 0003:0000174c       ??_C@_0CG@LACL@KNetClient?3?3SendMsg?$CI?$CJ?3?5send?$CI?$CJ?5fa@ 1005274c     KNetClient.obj
 0003:00001774       ??_C@_07JLJD@?$CFs?5?$CF02x?$AA@ 10052774     KNetClient.obj
 0003:0000177c       ??_C@_04PNBE@C2S?3?$AA@    1005277c     KNetClient.obj
 0003:00001784       ??_C@_0BK@EEOC@Sorting?5Protocol?4?4?4?3?$CFd?0?$CFd?$AA@ 10052784     KNetClient.obj
 0003:000017a0       ??_C@_0BH@HKCH@Sys?5Protocol?3shakehand?$AA@ 100527a0     KNetClient.obj
 0003:000017b8       ??_C@_0P@MIGG@Sys?5Protocol?30?$AA@ 100527b8     KNetClient.obj
 0003:000017c8       ??_C@_04EJID@PACK?$AA@     100527c8     KNetClient.obj
 0003:000017d0       ??_C@_0CG@OIFP@KNetClient?3?3RecvMsg?$CI?$CJ?3?5recv?$CI?$CJ?5fa@ 100527d0     KNetClient.obj
 0003:000017f8       ??_C@_0BP@MPHO@KNetClient?3?3DataProcess?5ERROR?$CB?$AA@ 100527f8     KNetClient.obj
 0003:00001818       ??_C@_0BB@NOFK@Receive?5Size?3?5?$CFd?$AA@ 10052818     KNetClient.obj
 0003:0000182c       ??_C@_0CF@LDPG@KNetServer?3?3Create?$CI?$CJ?3?5listen?5fai@ 1005282c     KNetServer.obj
 0003:00001854       ??_C@_0DF@DGMC@KNetServer?3?3Create?$CI?$CJ?3?5max?5number@ 10052854     KNetServer.obj
 0003:0000188c       ??_C@_0CH@FEDD@KNetServer?3?3Create?$CI?$CJ?3?5socket?$CI?$CJ?5f@ 1005288c     KNetServer.obj
 0003:000018b4       ??_C@_0CL@HKMJ@KNetServer?3?3Create?$CI?$CJ?3?5WSAStartup@ 100528b4     KNetServer.obj
 0003:000018e0       ??_C@_0BE@KNOO@socket?5send?5fail?3?$CFd?$AA@ 100528e0     KNetServer.obj
 0003:000018f4       ??_C@_0CF@IOGO@?$FLnet?$FNCompress?5Percent?3?$CFd?4?$CFd?0?5siz@ 100528f4     KNetServer.obj
 0003:0000191c       ??_C@_0BH@ODM@socket?5could?5not?5send?5?$AA@ 1005291c     KNetServer.obj
 0003:00001934       ??_C@_07PAAE@PACKAGE?$AA@  10052934     KPakData.obj
 0003:0000193c       ??_C@_0BJ@JOBP@PakList?5Open?5?3?5?$CFs?5?4?4?4?5Ok?$AA@ 1005293c     KPakList.obj
 0003:00001958       ??_C@_04HIKB@Path?$AA@     10052958     KPakList.obj
 0003:00001960       ??_C@_07CPIP@Package?$AA@  10052960     KPakList.obj
 0003:00001968       ??_C@_0BE@DANF@Encode?5time?5?$DN?5?$CFd?5ms?$AA@ 10052968     KPakTool.obj
 0003:0000197c       ??_C@_0BE@FPHN@Decode?5time?5?$DN?5?$CFd?5ms?$AA@ 1005297c     KPakTool.obj
 0003:00001998       ??_C@_02NGAF@wb?$AA@       10052998     KScanDir.obj
 0003:0000199c       ??_C@_02OOND@?4?4?$AA@     1005299c     KScanDir.obj
 0003:000019a0       ??_C@_01FDHG@?$CK?$AA@     100529a0     KScanDir.obj
 0003:000019a4       ??_C@_0EN@CDIM@UnKnown?5ScriptSet?5KeyStyle?3?$FL?$CFd?$FN?4@ 100529a4     KScriptSet.obj
 0003:000019f4       ??_C@_0DD@JEAP@Can?5not?5Create?5Script?5Instance?5?0@ 100529f4     KScriptSet.obj
 0003:00001a28       ??_C@_0EM@NHKC@The?5ScriptSet?8s?5Key?5Is?5Not?5a?5Str@ 10052a28     KScriptSet.obj
 0003:00001a74       ??_C@_0EM@JPB@The?5ScriptSet?8s?5Key?5Is?5Not?5a?5Num@ 10052a74     KScriptSet.obj
 0003:00001ac0       ??_C@_0CF@EKEM@Have?5Exist?5This?5Key?5In?5TScript?5S@ 10052ac0     KScriptSet.obj
 0003:00001ae8       ??_C@_03MLGJ@SPR?$AA@      10052ae8     KSprite.obj
 0003:00001aec       ??_C@_04CHML@SPR?$AA?$AA@  10052aec     KSpriteMaker.obj
 0003:00001af4       ??_C@_08NCOK@Exit?$CI?$CJ?$DL?6?$AA@ 10052af4     KStepLuaScript.obj
 0003:00001b00       ??_C@_02IELE@ds?$AA@       10052b00     KStepLuaScript.obj
 0003:00001b04       ??_C@_04HKN@On?$CFs?$AA@   10052b04     KStepLuaScript.obj
 0003:00001b0c       ??_C@_0BL@LOEJ@?$LN?E?$LB?$LO?$LE?m?N?s?3?5GotoLabel?$CI?$CJ?5?$DN?5?$CFs?$AA@ 10052b0c     KStepLuaScript.obj
 0003:00001b28       ??_C@_0M@FJKJ@Label?$CI?$CC?$CFs?$CC?$CJ?$AA@ 10052b28     KStepLuaScript.obj
 0003:00001b34       ??_C@_01POCP@?7?$AA@       10052b34     KTabFileCtrl.obj
 0003:00001b38       ??_C@_01BJG@?6?$AA@        10052b38     KTabFileCtrl.obj
 0003:00001b3c       ??_C@_01FEHD@?$AN?$AA@     10052b3c     KTabFileCtrl.obj
 0003:00001b40       ??_C@_03IIBH@?$CFs?7?$AA@  10052b40     KTabFileCtrl.obj
 0003:00001b44       ??_C@_0BN@BPPG@KVideo?5?3?5Create?5event?5failed?$AA@ 10052b44     KVideo.obj
 0003:00001b64       ??_C@_0CO@DJJJ@KWavFile?3?5Unsuport?5one?5channel?5I@ 10052b64     KWavFile.obj
 0003:00001b94       ??_C@_06HDI@?5Title?$AA@   10052b94     KWin32App.obj
 0003:00001b9c       ??_C@_06GAB@?5Class?$AA@   10052b9c     KWin32App.obj
 0003:00001e1c       ??_C@_0CE@DOGP@KZipCodec?3?5Unsuport?5compress?5met@ 10052e1c     KZipCodec.obj
 0003:00001e40       ??_C@_0CE@OABB@KZipCodec?3?5The?5Zip?5File?5is?5Encry@ 10052e40     KZipCodec.obj
 0003:00001e64       ??_C@_0BP@PCPD@KZipCodec?3?3lookat_code?$CI?$CJ?5error?$AA@ 10052e64     KZipCodec.obj
 0003:00001e84       ??_C@_0CD@CMOF@KZipCodec?3?3extract_inflate?$CI?$CJ?5err@ 10052e84     KZipCodec.obj
 0003:00001ea8       ??_C@_0BL@FFAH@PakList?5Open?5?3?5?$CFs?5?4?4?4?5Fail?$AA@ 10052ea8     KZipList.obj
 0003:00001ec4       ?s_NotAllowAtLineHeadA1Characters@@3PAEA 10052ec4     Text.obj
 0003:00001ed0       ?s_NotAllowAtLineHeadA3Characters@@3PAEA 10052ed0     Text.obj
 0003:00001edc       ?s_NotAllowAtLineHead00Characters@@3PAEA 10052edc     Text.obj
 0003:00001ee4       _ucl_alloc_hook            10052ee4     alloc.obj
 0003:00001ee8       _ucl_free_hook             10052ee8     alloc.obj
 0003:00001ef0       ??_C@_04KNK@1?401?$AA@     10052ef0     ucl_util.obj
 0003:00001ef8       ??_C@_0M@NJJK@Jan?502?52002?$AA@ 10052ef8     ucl_util.obj
 0003:00001f20       _jpeg_zigzag               10052f20     JpgLib:KJpegDecode.obj
 0003:00002014       ??_C@_0BG@GMMF@Lha?5Decode?3?5Bad?5table?$AA@ 10053014     LhaLib:KLhaTable.obj
 0003:0000226c       _band_limit_nsb            1005326c     mp3lib:KMp3Decode.obj
 0003:000067f8       _wincoef                   100577f8     mp3lib:KMp3Win.obj
 0003:00008230       ?g_pCanvas@@3PAVKCanvas@@A 10059230     KCanvas.obj
 0003:00008238       ?g_pDirectDraw@@3PAVKDirectDraw@@A 10059238     KDDraw.obj
 0003:00008240       ?g_pDirectInput@@3PAVKDirectInput@@A 10059240     KDInput.obj
 0003:00008250       ?g_pDirectSound@@3PAVKDirectSound@@A 10059250     KDSound.obj
 0003:00008264       ?g_pIme@@3PAVKIme@@A       10059264     Kime.obj
 0003:0000826c       ??_C@_00A@?$AA@            1005926c     KIniFile.obj
 0003:00008270       ?g_pKeyboard@@3PAVKKeyboard@@A 10059270     KKeyboard.obj
 0003:00008298       ?g_MemManager@@3VKMemManager@@A 10059298     KMemManager.obj
 0003:00008304       ?g_pMouse@@3PAVKMouse@@A   10059304     KMouse.obj
 0003:00008320       ?g_pNetClient@@3PAVKNetClient@@A 10059320     KNetClient.obj
 0003:00008328       ?Mutex@@3PAVKMutex@@A      10059328     KNetServer.obj
 0003:0000e328       ?g_pNetServer@@3PAVKNetServer@@A 1005f328     KNetServer.obj
 0003:0000e330       ?g_pPakList@@3PAVKPakList@@A 1005f330     KPakList.obj
 0003:0000e6a4       ?sout@@3PAU_iobuf@@A       1005f6a4     KWin32App.obj
 0003:0000e6a8       ?serr@@3PAU_iobuf@@A       1005f6a8     KWin32App.obj
 0003:0000e6bc       ?g_pZipList@@3PAVKZipList@@A 1005f6bc     KZipList.obj
 0003:0000e6c0       ?g_pIInlinePicSink@@3PAUIInlinePicEngineSink@@A 1005f6c0     Text.obj
 0003:0000e6d0       ___ucl_init_done           1005f6d0     ucl_init.obj
 0003:0000e6d4       _jpeg_stream               1005f6d4     JpgLib:KJpegLib.obj
 0003:0000e6d8       _jpeg_IDCT                 1005f6d8     JpgLib:KJpegLib.obj
 0003:0000e6dc       _jpeg_Y2RGB                1005f6dc     JpgLib:KJpegLib.obj
 0003:0000e6e0       _jpeg_YCbCr411             1005f6e0     JpgLib:KJpegLib.obj
 0003:0000e6e4       _jpeg_YCbCr111             1005f6e4     JpgLib:KJpegLib.obj
 0003:00011dc8       _inbuf                     10062dc8     LhaLib:KLhaIo.obj
 0003:00011dcc       _outbuf                    10062dcc     LhaLib:KLhaIo.obj
 0003:00011dd0       _inlen                     10062dd0     LhaLib:KLhaIo.obj
 0003:00011dd4       _outlen                    10062dd4     LhaLib:KLhaIo.obj
 0003:00011dd8       _bitbuf                    10062dd8     LhaLib:KLhaIo.obj
 0003:0001a010       _jpeg_qtable               1006b010     <common>
 0003:0001a020       _jpeg_ybuf                 1006b020     <common>
 0003:0001a220       _jpeg_crbuf                1006b220     <common>
 0003:0001a2a0       _jpeg_htable               1006b2a0     <common>
 0003:0001a2e0       _jpeg_cbbuf                1006b2e0     <common>
 0003:0001a360       _jpeg_head                 1006b360     <common>
 0003:0001a378       _jpeg_DC                   1006b378     <common>
 0003:0001a37e       _jpeg_bit                  1006b37e     <common>
 0003:0001a380       _left                      1006b380     <common>
 0003:0001ab80       _right                     1006bb80     <common>
 0003:0001b380       _mdct6_3v                  1006c380     <common>
 0003:0001b3a0       _mdct6_3v2                 1006c3a0     <common>
 0003:0001b3c0       _mdct18w                   1006c3c0     <common>
 0003:0001b420       _mdct18w2                  1006c420     <common>
 0003:0001b460       _coef                      1006c460     <common>
 0003:0001b4f0       _coef87                    1006c4f0     <common>
 0003:0001b500       _coef32                    1006c500     <common>
 0003:0001b580       _csa                       1006c580     <common>
 0003:0001b5c0       _win                       1006c5c0     <common>
 0003:0001b800       _sfBandIndex               1006c800     <common>
 0003:0001b8c0       _bitdat                    1006c8c0     <common>
 0003:0001b8e0       _nBand                     1006c8e0     <common>
 0003:0001b990       __adjust_fdiv              1006c990     <common>
 0003:0001b994       __pRawDllMain              1006c994     <common>
 0003:0001b998       ___onexitend               1006c998     <common>
 0003:0001b99c       ___onexitbegin             1006c99c     <common>

 entry point at        0001:0003b5e1

 Static symbols

 0001:0002c490       _basic_integral_check      1002d490 f   ucl_init.obj
 0001:0002c4a0       _basic_ptr_check           1002d4a0 f   ucl_init.obj
 0001:0002c4b0       _ptr_check                 1002d4b0 f   ucl_init.obj
 0001:0002c600       _schedule_insns_bug        1002d600 f   ucl_init.obj
 0001:0002c610       _strength_reduce_bug       1002d610 f   ucl_init.obj
 0001:00029810       _swd_exit                  1002a810 f   n2e_99.obj
 0001:00029870       _init_match                1002a870 f   n2e_99.obj
 0001:000298f0       _swd_init                  1002a8f0 f   n2e_99.obj
 0001:00029ad0       _swd_initdict              1002aad0 f   n2e_99.obj
 0001:00029b30       _swd_insertdict            1002ab30 f   n2e_99.obj
 0001:00029bd0       _find_match                1002abd0 f   n2e_99.obj
 0001:00029ca0       _swd_getbyte               1002aca0 f   n2e_99.obj
 0001:00029d30       _swd_accept                1002ad30 f   n2e_99.obj
 0001:00029de0       _swd_remove_node           1002ade0 f   n2e_99.obj
 0001:00029e60       _swd_findbest              1002ae60 f   n2e_99.obj
 0001:00029f80       _swd_search                1002af80 f   n2e_99.obj
 0001:0002a040       _swd_search2               1002b040 f   n2e_99.obj
 0001:0002a080       _bbConfig                  1002b080 f   n2e_99.obj
 0001:0002a0e0       _bbPutBit                  1002b0e0 f   n2e_99.obj
 0001:0002a140       _bbWriteBits               1002b140 f   n2e_99.obj
 0001:0002a180       _bbPutByte                 1002b180 f   n2e_99.obj
 0001:0002a1a0       _bbFlushBits               1002b1a0 f   n2e_99.obj
 0001:0002a1f0       _code_prefix_ss12          1002b1f0 f   n2e_99.obj
 0001:0002a260       _code_match                1002b260 f   n2e_99.obj
 0001:0002a390       _code_prefix_ss11          1002b390 f   n2e_99.obj
 0001:0002a3f0       _code_run                  1002b3f0 f   n2e_99.obj
 0001:0002a440       _len_of_coded_match        1002b440 f   n2e_99.obj
 0001:00026d40       _swd_exit                  10027d40 f   n2d_99.obj
 0001:00026da0       _init_match                10027da0 f   n2d_99.obj
 0001:00026e20       _swd_init                  10027e20 f   n2d_99.obj
 0001:00027000       _swd_initdict              10028000 f   n2d_99.obj
 0001:00027060       _swd_insertdict            10028060 f   n2d_99.obj
 0001:00027100       _find_match                10028100 f   n2d_99.obj
 0001:000271d0       _swd_getbyte               100281d0 f   n2d_99.obj
 0001:00027260       _swd_accept                10028260 f   n2d_99.obj
 0001:00027310       _swd_remove_node           10028310 f   n2d_99.obj
 0001:00027390       _swd_findbest              10028390 f   n2d_99.obj
 0001:000274b0       _swd_search                100284b0 f   n2d_99.obj
 0001:00027570       _swd_search2               10028570 f   n2d_99.obj
 0001:000275b0       _bbConfig                  100285b0 f   n2d_99.obj
 0001:00027610       _bbPutBit                  10028610 f   n2d_99.obj
 0001:00027670       _bbWriteBits               10028670 f   n2d_99.obj
 0001:000276b0       _bbPutByte                 100286b0 f   n2d_99.obj
 0001:000276d0       _bbFlushBits               100286d0 f   n2d_99.obj
 0001:00027720       _code_prefix_ss12          10028720 f   n2d_99.obj
 0001:00027790       _code_match                10028790 f   n2d_99.obj
 0001:000278a0       _code_prefix_ss11          100288a0 f   n2d_99.obj
 0001:00027900       _code_run                  10028900 f   n2d_99.obj
 0001:00027950       _len_of_coded_match        10028950 f   n2d_99.obj
 0001:000245a0       _swd_exit                  100255a0 f   n2b_99.obj
 0001:00024600       _init_match                10025600 f   n2b_99.obj
 0001:00024680       _swd_init                  10025680 f   n2b_99.obj
 0001:00024860       _swd_initdict              10025860 f   n2b_99.obj
 0001:000248c0       _swd_insertdict            100258c0 f   n2b_99.obj
 0001:00024960       _find_match                10025960 f   n2b_99.obj
 0001:00024a30       _swd_getbyte               10025a30 f   n2b_99.obj
 0001:00024ac0       _swd_accept                10025ac0 f   n2b_99.obj
 0001:00024b70       _swd_remove_node           10025b70 f   n2b_99.obj
 0001:00024bf0       _swd_findbest              10025bf0 f   n2b_99.obj
 0001:00024d10       _swd_search                10025d10 f   n2b_99.obj
 0001:00024dd0       _swd_search2               10025dd0 f   n2b_99.obj
 0001:00024e10       _bbConfig                  10025e10 f   n2b_99.obj
 0001:00024e70       _bbPutBit                  10025e70 f   n2b_99.obj
 0001:00024ed0       _bbWriteBits               10025ed0 f   n2b_99.obj
 0001:00024f10       _bbPutByte                 10025f10 f   n2b_99.obj
 0001:00024f30       _bbFlushBits               10025f30 f   n2b_99.obj
 0001:00024f80       _code_prefix_ss11          10025f80 f   n2b_99.obj
 0001:00024fe0       _code_match                10025fe0 f   n2b_99.obj
 0001:000250e0       _code_run                  100260e0 f   n2b_99.obj
 0001:00025130       _len_of_coded_match        10026130 f   n2b_99.obj
 0001:00023fb0       _ucl_alloc_internal        10024fb0 f   alloc.obj
 0001:00023ff0       _ucl_free_internal         10024ff0 f   alloc.obj
 0001:000238b0       ?TEncodeCtrl@@YA_NPADHAAH1@Z 100248b0 f   Text.obj
 0001:000239f0       ?TEncodeCtrl@@YAHHPADH0@Z  100249f0 f   Text.obj
 0001:00020740       ?WndProc@@YGJPAUHWND__@@IIJ@Z 10021740 f   KWin32App.obj
 0001:0001fa00       ?ImaInitTable@@YAXXZ       10020a00 f   KWavCodec.obj
 0001:0001fa60       ?ImaDecodeBlock@@YAXPAEPAFH@Z 10020a60 f   KWavCodec.obj
 0001:0001faa0       ?ImaDecodeSample@@YAXHHPAEPAFHH@Z 10020aa0 f   KWavCodec.obj
 0001:000145e0       _$E13                      100155e0 f   KNetServer.obj
 0001:000145f0       _$E10                      100155f0 f   KNetServer.obj
 0001:00014610       _$E12                      10015610 f   KNetServer.obj
 0001:00014620       _$E11                      10015620 f   KNetServer.obj
 0001:000129f0       ?LoadMpgLib@@YAHXZ         100139f0 f   KMpgMusic.obj
 0001:00012ad0       ?FreeMpgLib@@YAXXZ         10013ad0 f   KMpgMusic.obj
 0001:00012380       ?LoadMp4Lib@@YAHXZ         10013380 f   KMp4Video.obj
 0001:00012420       ?FreeMp4Lib@@YAXXZ         10013420 f   KMp4Video.obj
 0001:000104f0       _$E6                       100114f0 f   KMessage.obj
 0001:00010500       _$E3                       10011500 f   KMessage.obj
 0001:00010540       _$E5                       10011540 f   KMessage.obj
 0001:00010550       _$E4                       10011550 f   KMessage.obj
 0001:00010000       _$E6                       10011000 f   KMemManager.obj
 0001:00010010       _$E3                       10011010 f   KMemManager.obj
 0001:00010020       _$E5                       10011020 f   KMemManager.obj
 0001:00010030       _$E4                       10011030 f   KMemManager.obj
 0001:0000fb20       _$E4                       10010b20 f   KMemBase.obj
 0001:0000fb30       _$E1                       10010b30 f   KMemBase.obj
 0001:0000fb40       _$E3                       10010b40 f   KMemBase.obj
 0001:0000fb50       _$E2                       10010b50 f   KMemBase.obj
 0001:00008840       ?LoadEicLib@@YAHXZ         10009840 f   KEicScript.obj
 0001:00008920       ?FreeEicLib@@YAXXZ         10009920 f   KEicScript.obj
 0001:00007100       _$E4                       10008100 f   KDrawSprite.obj
 0001:00007110       _$E1                       10008110 f   KDrawSprite.obj
 0001:00007120       _$E3                       10008120 f   KDrawSprite.obj
 0001:00007130       _$E2                       10008130 f   KDrawSprite.obj
 0001:00000c70       ?str2ulong@@YAKPAD@Z       10001c70 f   KAviFile.obj
 0001:0002e4f0       _Y2RGB                     1002f4f0 f   JpgLib:KJpegColor.obj
 0001:0002e540       _YCbCr411_565              1002f540 f   JpgLib:KJpegColor.obj
 0001:0002e7f0       _YCbCr411_555              1002f7f0 f   JpgLib:KJpegColor.obj
 0001:0002ea90       _RGB16_555                 1002fa90 f   JpgLib:KJpegColor.obj
 0001:0002eb20       _RGB16_565                 1002fb20 f   JpgLib:KJpegColor.obj
 0001:0002ebb0       _YCbCr411_nommx            1002fbb0 f   JpgLib:KJpegColor.obj
 0001:0002ed60       _YCbCr111                  1002fd60 f   JpgLib:KJpegColor.obj
 0001:000314c0       _make_len                  100324c0 f   LhaLib:KLhaTree.obj
 0001:00031590       _count_len                 10032590 f   LhaLib:KLhaTree.obj
 0001:00031610       _downheap                  10032610 f   LhaLib:KLhaTree.obj
 0001:000305b0       _send_block                100315b0 f   LhaLib:KLhaHuf.obj
 0001:00030790       _count_t_freq              10031790 f   LhaLib:KLhaHuf.obj
 0001:00030850       _write_pt_len              10031850 f   LhaLib:KLhaHuf.obj
 0001:000308f0       _write_c_len               100318f0 f   LhaLib:KLhaHuf.obj
 0001:00030a40       _encode_c                  10031a40 f   LhaLib:KLhaHuf.obj
 0001:00030a70       _encode_p                  10031a70 f   LhaLib:KLhaHuf.obj
 0001:00030c30       _read_pt_len               10031c30 f   LhaLib:KLhaHuf.obj
 0001:00030d60       _read_c_len                10031d60 f   LhaLib:KLhaHuf.obj
 0001:0002fe80       _encode_alloc              10030e80 f   LhaLib:KLhaLib.obj
 0001:0002fed0       _encode_free               10030ed0 f   LhaLib:KLhaLib.obj
 0001:0002ff40       _init_slide                10030f40 f   LhaLib:KLhaLib.obj
 0001:0002ff60       _insert                    10030f60 f   LhaLib:KLhaLib.obj
 0001:0002ffa0       _match_insert              10030fa0 f   LhaLib:KLhaLib.obj
 0001:00030180       _get_next                  10031180 f   LhaLib:KLhaLib.obj
 0001:000301d0       _update                    100311d0 f   LhaLib:KLhaLib.obj
 0001:000303c0       _decode_alloc              100313c0 f   LhaLib:KLhaLib.obj
 0001:000303f0       _decode_free               100313f0 f   LhaLib:KLhaLib.obj
 0001:00035ef0       _forward_bf                10036ef0 f   mp3lib:KMp3Fdct.obj
 0001:00035fb0       _back_bf                   10036fb0 f   mp3lib:KMp3Fdct.obj
 0001:00034980       _bitget_lb                 10035980 f   mp3lib:KMp3Huf.obj
 0001:000349f0       _bitget2                   100359f0 f   mp3lib:KMp3Huf.obj
 0001:00033220       _gencoef                   10034220 f   mp3lib:KMp3Sbt.obj
 0001:00031b40       _Xform_mono                10032b40 f   mp3lib:KMp3Decode.obj
 0001:00031bf0       _Xform_dual_right          10032bf0 f   mp3lib:KMp3Decode.obj
 0001:00031ca0       _Xform_dual                10032ca0 f   mp3lib:KMp3Decode.obj
 0001:00031dc0       _Xform_dual_mono           10032dc0 f   mp3lib:KMp3Decode.obj
 0001:00031f80       _L3audio_decode_MPEG1      10032f80 f   mp3lib:KMp3Decode.obj
 0001:00032100       _bitget_init               10033100 f   mp3lib:KMp3Decode.obj
 0001:00032120       _unpack_side_MPEG1         10033120 f   mp3lib:KMp3Decode.obj
 0001:000323f0       _unpack_main               100333f0 f   mp3lib:KMp3Decode.obj
 0001:00032940       _bitget_init_end           10033940 f   mp3lib:KMp3Decode.obj
 0001:00032950       _bitget_bits_used          10033950 f   mp3lib:KMp3Decode.obj
 0001:00032d40       _L3audio_decode_MPEG2      10033d40 f   mp3lib:KMp3Decode.obj
 0001:00032ed0       _unpack_side_MPEG2         10033ed0 f   mp3lib:KMp3Decode.obj
 0001:0003b2c4       ?ArrayUnwindFilter@@YAHPAU_EXCEPTION_POINTERS@@@Z 1003c2c4 f   MSVCRT:ehvecdtr.obj
